
FreeRTOSp2.elf:     file format elf32-littlearm

Sections:
Idx Name          Size      VMA       LMA       File off  Algn
  0 .text         00002400  00080000  00080000  00008000  2**2
                  CONTENTS, ALLOC, LOAD, READONLY, CODE
  1 .relocate     00000568  20070000  00082400  00010000  2**3
                  CONTENTS, ALLOC, LOAD, CODE
  2 .bss          0000a1e0  20070568  00082968  00010568  2**3
                  ALLOC
  3 .stack        00002000  2007a748  0008cb48  00010568  2**0
                  ALLOC
  4 .ARM.attributes 00000029  00000000  00000000  00010568  2**0
                  CONTENTS, READONLY
  5 .comment      0000005b  00000000  00000000  00010591  2**0
                  CONTENTS, READONLY
  6 .debug_info   0000b97e  00000000  00000000  000105ec  2**0
                  CONTENTS, READONLY, DEBUGGING
  7 .debug_abbrev 000026f0  00000000  00000000  0001bf6a  2**0
                  CONTENTS, READONLY, DEBUGGING
  8 .debug_loc    00005f4f  00000000  00000000  0001e65a  2**0
                  CONTENTS, READONLY, DEBUGGING
  9 .debug_aranges 00000998  00000000  00000000  000245a9  2**0
                  CONTENTS, READONLY, DEBUGGING
 10 .debug_ranges 00000948  00000000  00000000  00024f41  2**0
                  CONTENTS, READONLY, DEBUGGING
 11 .debug_macro  00007d72  00000000  00000000  00025889  2**0
                  CONTENTS, READONLY, DEBUGGING
 12 .debug_line   0000f5b8  00000000  00000000  0002d5fb  2**0
                  CONTENTS, READONLY, DEBUGGING
 13 .debug_str    00066fdd  00000000  00000000  0003cbb3  2**0
                  CONTENTS, READONLY, DEBUGGING
 14 .debug_frame  00001740  00000000  00000000  000a3b90  2**2
                  CONTENTS, READONLY, DEBUGGING

Disassembly of section .text:

00080000 <_sfixed>:
   80000:	2007c748 	.word	0x2007c748
   80004:	00081da9 	.word	0x00081da9
   80008:	00081da5 	.word	0x00081da5
   8000c:	00081da5 	.word	0x00081da5
   80010:	00081da5 	.word	0x00081da5
   80014:	00081da5 	.word	0x00081da5
   80018:	00081da5 	.word	0x00081da5
	...
   8002c:	00080385 	.word	0x00080385
   80030:	00081da5 	.word	0x00081da5
   80034:	00000000 	.word	0x00000000
   80038:	00080401 	.word	0x00080401
   8003c:	0008043d 	.word	0x0008043d
   80040:	00081da5 	.word	0x00081da5
   80044:	00081da5 	.word	0x00081da5
   80048:	00081da5 	.word	0x00081da5
   8004c:	00081da5 	.word	0x00081da5
   80050:	00081da5 	.word	0x00081da5
   80054:	00081da5 	.word	0x00081da5
   80058:	00081da5 	.word	0x00081da5
   8005c:	00081da5 	.word	0x00081da5
   80060:	00081da5 	.word	0x00081da5
   80064:	00081da5 	.word	0x00081da5
   80068:	00000000 	.word	0x00000000
   8006c:	00081c15 	.word	0x00081c15
   80070:	00081c29 	.word	0x00081c29
   80074:	00081c3d 	.word	0x00081c3d
   80078:	00081c51 	.word	0x00081c51
	...
   80084:	00081da5 	.word	0x00081da5
   80088:	00081da5 	.word	0x00081da5
   8008c:	00081da5 	.word	0x00081da5
   80090:	00081da5 	.word	0x00081da5
   80094:	00081da5 	.word	0x00081da5
   80098:	00081da5 	.word	0x00081da5
   8009c:	00081da5 	.word	0x00081da5
   800a0:	00081da5 	.word	0x00081da5
   800a4:	00000000 	.word	0x00000000
   800a8:	00081da5 	.word	0x00081da5
   800ac:	00081da5 	.word	0x00081da5
   800b0:	00081da5 	.word	0x00081da5
   800b4:	00081da5 	.word	0x00081da5
   800b8:	00081da5 	.word	0x00081da5
   800bc:	00081da5 	.word	0x00081da5
   800c0:	00081da5 	.word	0x00081da5
   800c4:	00081da5 	.word	0x00081da5
   800c8:	00081da5 	.word	0x00081da5
   800cc:	00081da5 	.word	0x00081da5
   800d0:	00081da5 	.word	0x00081da5
   800d4:	00081da5 	.word	0x00081da5
   800d8:	00081da5 	.word	0x00081da5
   800dc:	00081da5 	.word	0x00081da5
   800e0:	00081da5 	.word	0x00081da5
   800e4:	00081da5 	.word	0x00081da5
   800e8:	00081da5 	.word	0x00081da5
   800ec:	00081da5 	.word	0x00081da5
   800f0:	00081da5 	.word	0x00081da5

000800f4 <__do_global_dtors_aux>:
   800f4:	b510      	push	{r4, lr}
   800f6:	4c05      	ldr	r4, [pc, #20]	; (8010c <__do_global_dtors_aux+0x18>)
   800f8:	7823      	ldrb	r3, [r4, #0]
   800fa:	b933      	cbnz	r3, 8010a <__do_global_dtors_aux+0x16>
   800fc:	4b04      	ldr	r3, [pc, #16]	; (80110 <__do_global_dtors_aux+0x1c>)
   800fe:	b113      	cbz	r3, 80106 <__do_global_dtors_aux+0x12>
   80100:	4804      	ldr	r0, [pc, #16]	; (80114 <__do_global_dtors_aux+0x20>)
   80102:	f3af 8000 	nop.w
   80106:	2301      	movs	r3, #1
   80108:	7023      	strb	r3, [r4, #0]
   8010a:	bd10      	pop	{r4, pc}
   8010c:	20070568 	.word	0x20070568
   80110:	00000000 	.word	0x00000000
   80114:	00082400 	.word	0x00082400

00080118 <frame_dummy>:
   80118:	4b08      	ldr	r3, [pc, #32]	; (8013c <frame_dummy+0x24>)
   8011a:	b510      	push	{r4, lr}
   8011c:	b11b      	cbz	r3, 80126 <frame_dummy+0xe>
   8011e:	4808      	ldr	r0, [pc, #32]	; (80140 <frame_dummy+0x28>)
   80120:	4908      	ldr	r1, [pc, #32]	; (80144 <frame_dummy+0x2c>)
   80122:	f3af 8000 	nop.w
   80126:	4808      	ldr	r0, [pc, #32]	; (80148 <frame_dummy+0x30>)
   80128:	6803      	ldr	r3, [r0, #0]
   8012a:	b903      	cbnz	r3, 8012e <frame_dummy+0x16>
   8012c:	bd10      	pop	{r4, pc}
   8012e:	4b07      	ldr	r3, [pc, #28]	; (8014c <frame_dummy+0x34>)
   80130:	2b00      	cmp	r3, #0
   80132:	d0fb      	beq.n	8012c <frame_dummy+0x14>
   80134:	e8bd 4010 	ldmia.w	sp!, {r4, lr}
   80138:	4718      	bx	r3
   8013a:	bf00      	nop
   8013c:	00000000 	.word	0x00000000
   80140:	00082400 	.word	0x00082400
   80144:	2007056c 	.word	0x2007056c
   80148:	00082400 	.word	0x00082400
   8014c:	00000000 	.word	0x00000000

00080150 <tc_init>:
   80150:	b410      	push	{r4}
   80152:	0189      	lsls	r1, r1, #6
   80154:	1843      	adds	r3, r0, r1
   80156:	2402      	movs	r4, #2
   80158:	5044      	str	r4, [r0, r1]
   8015a:	f04f 31ff 	mov.w	r1, #4294967295
   8015e:	6299      	str	r1, [r3, #40]	; 0x28
   80160:	6a19      	ldr	r1, [r3, #32]
   80162:	605a      	str	r2, [r3, #4]
   80164:	f85d 4b04 	ldr.w	r4, [sp], #4
   80168:	4770      	bx	lr
   8016a:	bf00      	nop

0008016c <tc_set_block_mode>:
   8016c:	f8c0 10c4 	str.w	r1, [r0, #196]	; 0xc4
   80170:	4770      	bx	lr
   80172:	bf00      	nop

00080174 <tc_stop>:
   80174:	0189      	lsls	r1, r1, #6
   80176:	2302      	movs	r3, #2
   80178:	5043      	str	r3, [r0, r1]
   8017a:	4770      	bx	lr

0008017c <delay_init>:
   8017c:	b510      	push	{r4, lr}
   8017e:	201b      	movs	r0, #27
   80180:	4b08      	ldr	r3, [pc, #32]	; (801a4 <delay_init+0x28>)
   80182:	4798      	blx	r3
   80184:	4c08      	ldr	r4, [pc, #32]	; (801a8 <delay_init+0x2c>)
   80186:	4620      	mov	r0, r4
   80188:	2100      	movs	r1, #0
   8018a:	460a      	mov	r2, r1
   8018c:	4b07      	ldr	r3, [pc, #28]	; (801ac <delay_init+0x30>)
   8018e:	4798      	blx	r3
   80190:	4620      	mov	r0, r4
   80192:	2100      	movs	r1, #0
   80194:	4b06      	ldr	r3, [pc, #24]	; (801b0 <delay_init+0x34>)
   80196:	4798      	blx	r3
   80198:	4620      	mov	r0, r4
   8019a:	2100      	movs	r1, #0
   8019c:	4b05      	ldr	r3, [pc, #20]	; (801b4 <delay_init+0x38>)
   8019e:	4798      	blx	r3
   801a0:	2000      	movs	r0, #0
   801a2:	bd10      	pop	{r4, pc}
   801a4:	00081d51 	.word	0x00081d51
   801a8:	40080000 	.word	0x40080000
   801ac:	00080151 	.word	0x00080151
   801b0:	0008016d 	.word	0x0008016d
   801b4:	00080175 	.word	0x00080175

000801b8 <pio_interrupt>:
   801b8:	4b03      	ldr	r3, [pc, #12]	; (801c8 <pio_interrupt+0x10>)
   801ba:	6cdb      	ldr	r3, [r3, #76]	; 0x4c
   801bc:	4a03      	ldr	r2, [pc, #12]	; (801cc <pio_interrupt+0x14>)
   801be:	6813      	ldr	r3, [r2, #0]
   801c0:	3301      	adds	r3, #1
   801c2:	6013      	str	r3, [r2, #0]
   801c4:	4770      	bx	lr
   801c6:	bf00      	nop
   801c8:	400e1000 	.word	0x400e1000
   801cc:	20070584 	.word	0x20070584

000801d0 <pins_init>:
   801d0:	b570      	push	{r4, r5, r6, lr}
   801d2:	b082      	sub	sp, #8
   801d4:	200c      	movs	r0, #12
   801d6:	4b12      	ldr	r3, [pc, #72]	; (80220 <pins_init+0x50>)
   801d8:	4798      	blx	r3
   801da:	4c12      	ldr	r4, [pc, #72]	; (80224 <pins_init+0x54>)
   801dc:	4620      	mov	r0, r4
   801de:	f04f 6180 	mov.w	r1, #67108864	; 0x4000000
   801e2:	2201      	movs	r2, #1
   801e4:	4b10      	ldr	r3, [pc, #64]	; (80228 <pins_init+0x58>)
   801e6:	4798      	blx	r3
   801e8:	f04f 6580 	mov.w	r5, #67108864	; 0x4000000
   801ec:	6225      	str	r5, [r4, #32]
   801ee:	f8c4 5084 	str.w	r5, [r4, #132]	; 0x84
   801f2:	f240 43ff 	movw	r3, #1279	; 0x4ff
   801f6:	f8c4 308c 	str.w	r3, [r4, #140]	; 0x8c
   801fa:	4b0c      	ldr	r3, [pc, #48]	; (8022c <pins_init+0x5c>)
   801fc:	9300      	str	r3, [sp, #0]
   801fe:	4620      	mov	r0, r4
   80200:	210c      	movs	r1, #12
   80202:	462a      	mov	r2, r5
   80204:	2370      	movs	r3, #112	; 0x70
   80206:	4e0a      	ldr	r6, [pc, #40]	; (80230 <pins_init+0x60>)
   80208:	47b0      	blx	r6
   8020a:	4620      	mov	r0, r4
   8020c:	4629      	mov	r1, r5
   8020e:	4b09      	ldr	r3, [pc, #36]	; (80234 <pins_init+0x64>)
   80210:	4798      	blx	r3
   80212:	f44f 5280 	mov.w	r2, #4096	; 0x1000
   80216:	4b08      	ldr	r3, [pc, #32]	; (80238 <pins_init+0x68>)
   80218:	601a      	str	r2, [r3, #0]
   8021a:	b002      	add	sp, #8
   8021c:	bd70      	pop	{r4, r5, r6, pc}
   8021e:	bf00      	nop
   80220:	00081d51 	.word	0x00081d51
   80224:	400e1000 	.word	0x400e1000
   80228:	0008194d 	.word	0x0008194d
   8022c:	000801b9 	.word	0x000801b9
   80230:	00081ba9 	.word	0x00081ba9
   80234:	000819d9 	.word	0x000819d9
   80238:	e000e100 	.word	0xe000e100

0008023c <Task_pos_nav>:

#include <asf.h>
#include "delay.h"

void Task_pos_nav(void *pvParameters)
{
   8023c:	b570      	push	{r4, r5, r6, lr}
   8023e:	b082      	sub	sp, #8
		bool level)
{
	Pio *base = arch_ioport_pin_to_base(pin);

	if (level) {
		base->PIO_SODR = arch_ioport_pin_to_mask(pin);
   80240:	4c08      	ldr	r4, [pc, #32]	; (80264 <Task_pos_nav+0x28>)
   80242:	f04f 6680 	mov.w	r6, #67108864	; 0x4000000
   80246:	4635      	mov	r5, r6
	while(1) {
		volatile j = 0;
   80248:	2300      	movs	r3, #0
   8024a:	9301      	str	r3, [sp, #4]
   8024c:	2264      	movs	r2, #100	; 0x64

		for (int i=0; i < 100; i++)
		{
			j++;
   8024e:	9b01      	ldr	r3, [sp, #4]
   80250:	3301      	adds	r3, #1
   80252:	9301      	str	r3, [sp, #4]
   80254:	6325      	str	r5, [r4, #48]	; 0x30
void Task_pos_nav(void *pvParameters)
{
	while(1) {
		volatile j = 0;

		for (int i=0; i < 100; i++)
   80256:	3a01      	subs	r2, #1
   80258:	d1f9      	bne.n	8024e <Task_pos_nav+0x12>
	} else {
		base->PIO_CODR = arch_ioport_pin_to_mask(pin);
   8025a:	6366      	str	r6, [r4, #52]	; 0x34
		{
			j++;
			ioport_set_pin_level(PIO_PB26_IDX, 1);
		}
		ioport_set_pin_level(PIO_PB26_IDX, 0);
		vTaskDelay(1);
   8025c:	2001      	movs	r0, #1
   8025e:	4b02      	ldr	r3, [pc, #8]	; (80268 <Task_pos_nav+0x2c>)
   80260:	4798      	blx	r3
	}
   80262:	e7f1      	b.n	80248 <Task_pos_nav+0xc>
   80264:	400e1000 	.word	0x400e1000
   80268:	00081071 	.word	0x00081071

0008026c <Task_regulatory>:

#include <asf.h>
#include "delay.h"

void Task_regulatory(void *pvParameters)
{
   8026c:	b570      	push	{r4, r5, r6, lr}
   8026e:	b082      	sub	sp, #8
		bool level)
{
	Pio *base = arch_ioport_pin_to_base(pin);

	if (level) {
		base->PIO_SODR = arch_ioport_pin_to_mask(pin);
   80270:	4c08      	ldr	r4, [pc, #32]	; (80294 <Task_regulatory+0x28>)
   80272:	f04f 6600 	mov.w	r6, #134217728	; 0x8000000
   80276:	4635      	mov	r5, r6
	while(1) {
		volatile j = 0;
   80278:	2300      	movs	r3, #0
   8027a:	9301      	str	r3, [sp, #4]
   8027c:	2264      	movs	r2, #100	; 0x64

		for (int i=0; i < 100; i++)
		{
			j++;
   8027e:	9b01      	ldr	r3, [sp, #4]
   80280:	3301      	adds	r3, #1
   80282:	9301      	str	r3, [sp, #4]
   80284:	6325      	str	r5, [r4, #48]	; 0x30
void Task_regulatory(void *pvParameters)
{
	while(1) {
		volatile j = 0;

		for (int i=0; i < 100; i++)
   80286:	3a01      	subs	r2, #1
   80288:	d1f9      	bne.n	8027e <Task_regulatory+0x12>
	} else {
		base->PIO_CODR = arch_ioport_pin_to_mask(pin);
   8028a:	6366      	str	r6, [r4, #52]	; 0x34
		{
			j++;
			ioport_set_pin_level(PIO_PB27_IDX, 1);
		}
		ioport_set_pin_level(PIO_PB27_IDX, 0);
		vTaskDelay(1);
   8028c:	2001      	movs	r0, #1
   8028e:	4b02      	ldr	r3, [pc, #8]	; (80298 <Task_regulatory+0x2c>)
   80290:	4798      	blx	r3
	}
   80292:	e7f1      	b.n	80278 <Task_regulatory+0xc>
   80294:	400e1000 	.word	0x400e1000
   80298:	00081071 	.word	0x00081071

0008029c <uart0_init>:
   8029c:	4b04      	ldr	r3, [pc, #16]	; (802b0 <uart0_init+0x14>)
   8029e:	681a      	ldr	r2, [r3, #0]
   802a0:	f042 0240 	orr.w	r2, r2, #64	; 0x40
   802a4:	601a      	str	r2, [r3, #0]
   802a6:	f240 2222 	movw	r2, #546	; 0x222
   802aa:	621a      	str	r2, [r3, #32]
   802ac:	4770      	bx	lr
   802ae:	bf00      	nop
   802b0:	400e0800 	.word	0x400e0800

000802b4 <vListInitialise>:
   802b4:	f100 0308 	add.w	r3, r0, #8
   802b8:	6043      	str	r3, [r0, #4]
   802ba:	f04f 32ff 	mov.w	r2, #4294967295
   802be:	6082      	str	r2, [r0, #8]
   802c0:	60c3      	str	r3, [r0, #12]
   802c2:	6103      	str	r3, [r0, #16]
   802c4:	2300      	movs	r3, #0
   802c6:	6003      	str	r3, [r0, #0]
   802c8:	4770      	bx	lr
   802ca:	bf00      	nop

000802cc <vListInitialiseItem>:
   802cc:	2300      	movs	r3, #0
   802ce:	6103      	str	r3, [r0, #16]
   802d0:	4770      	bx	lr
   802d2:	bf00      	nop

000802d4 <vListInsertEnd>:
   802d4:	6843      	ldr	r3, [r0, #4]
   802d6:	685a      	ldr	r2, [r3, #4]
   802d8:	604a      	str	r2, [r1, #4]
   802da:	6842      	ldr	r2, [r0, #4]
   802dc:	608a      	str	r2, [r1, #8]
   802de:	685a      	ldr	r2, [r3, #4]
   802e0:	6091      	str	r1, [r2, #8]
   802e2:	6059      	str	r1, [r3, #4]
   802e4:	6041      	str	r1, [r0, #4]
   802e6:	6108      	str	r0, [r1, #16]
   802e8:	6803      	ldr	r3, [r0, #0]
   802ea:	3301      	adds	r3, #1
   802ec:	6003      	str	r3, [r0, #0]
   802ee:	4770      	bx	lr

000802f0 <vListInsert>:
   802f0:	b410      	push	{r4}
   802f2:	680c      	ldr	r4, [r1, #0]
   802f4:	f1b4 3fff 	cmp.w	r4, #4294967295
   802f8:	d101      	bne.n	802fe <vListInsert+0xe>
   802fa:	6903      	ldr	r3, [r0, #16]
   802fc:	e00a      	b.n	80314 <vListInsert+0x24>
   802fe:	f100 0308 	add.w	r3, r0, #8
   80302:	68c2      	ldr	r2, [r0, #12]
   80304:	6812      	ldr	r2, [r2, #0]
   80306:	4294      	cmp	r4, r2
   80308:	d304      	bcc.n	80314 <vListInsert+0x24>
   8030a:	685b      	ldr	r3, [r3, #4]
   8030c:	685a      	ldr	r2, [r3, #4]
   8030e:	6812      	ldr	r2, [r2, #0]
   80310:	4294      	cmp	r4, r2
   80312:	d2fa      	bcs.n	8030a <vListInsert+0x1a>
   80314:	685a      	ldr	r2, [r3, #4]
   80316:	604a      	str	r2, [r1, #4]
   80318:	6091      	str	r1, [r2, #8]
   8031a:	608b      	str	r3, [r1, #8]
   8031c:	6059      	str	r1, [r3, #4]
   8031e:	6108      	str	r0, [r1, #16]
   80320:	6803      	ldr	r3, [r0, #0]
   80322:	3301      	adds	r3, #1
   80324:	6003      	str	r3, [r0, #0]
   80326:	f85d 4b04 	ldr.w	r4, [sp], #4
   8032a:	4770      	bx	lr

0008032c <uxListRemove>:
   8032c:	6843      	ldr	r3, [r0, #4]
   8032e:	6882      	ldr	r2, [r0, #8]
   80330:	609a      	str	r2, [r3, #8]
   80332:	6883      	ldr	r3, [r0, #8]
   80334:	6842      	ldr	r2, [r0, #4]
   80336:	605a      	str	r2, [r3, #4]
   80338:	6903      	ldr	r3, [r0, #16]
   8033a:	685a      	ldr	r2, [r3, #4]
   8033c:	4282      	cmp	r2, r0
   8033e:	bf04      	itt	eq
   80340:	6882      	ldreq	r2, [r0, #8]
   80342:	605a      	streq	r2, [r3, #4]
   80344:	2200      	movs	r2, #0
   80346:	6102      	str	r2, [r0, #16]
   80348:	681a      	ldr	r2, [r3, #0]
   8034a:	3a01      	subs	r2, #1
   8034c:	601a      	str	r2, [r3, #0]
   8034e:	6818      	ldr	r0, [r3, #0]
   80350:	4770      	bx	lr
   80352:	bf00      	nop

00080354 <prvPortStartFirstTask>:
   80354:	4803      	ldr	r0, [pc, #12]	; (80364 <prvPortStartFirstTask+0x10>)
   80356:	6800      	ldr	r0, [r0, #0]
   80358:	6800      	ldr	r0, [r0, #0]
   8035a:	f380 8808 	msr	MSP, r0
   8035e:	b662      	cpsie	i
   80360:	df00      	svc	0
   80362:	bf00      	nop
   80364:	e000ed08 	.word	0xe000ed08

00080368 <pxPortInitialiseStack>:
   80368:	f04f 7380 	mov.w	r3, #16777216	; 0x1000000
   8036c:	f840 3c04 	str.w	r3, [r0, #-4]
   80370:	f840 1c08 	str.w	r1, [r0, #-8]
   80374:	2300      	movs	r3, #0
   80376:	f840 3c0c 	str.w	r3, [r0, #-12]
   8037a:	f840 2c20 	str.w	r2, [r0, #-32]
   8037e:	3840      	subs	r0, #64	; 0x40
   80380:	4770      	bx	lr
   80382:	bf00      	nop

00080384 <SVC_Handler>:
   80384:	4b06      	ldr	r3, [pc, #24]	; (803a0 <pxCurrentTCBConst2>)
   80386:	6819      	ldr	r1, [r3, #0]
   80388:	6808      	ldr	r0, [r1, #0]
   8038a:	e8b0 0ff0 	ldmia.w	r0!, {r4, r5, r6, r7, r8, r9, sl, fp}
   8038e:	f380 8809 	msr	PSP, r0
   80392:	f04f 0000 	mov.w	r0, #0
   80396:	f380 8811 	msr	BASEPRI, r0
   8039a:	f04e 0e0d 	orr.w	lr, lr, #13
   8039e:	4770      	bx	lr

000803a0 <pxCurrentTCBConst2>:
   803a0:	2007a660 	.word	0x2007a660

000803a4 <vPortYieldFromISR>:
   803a4:	f04f 5280 	mov.w	r2, #268435456	; 0x10000000
   803a8:	4b01      	ldr	r3, [pc, #4]	; (803b0 <vPortYieldFromISR+0xc>)
   803aa:	601a      	str	r2, [r3, #0]
   803ac:	4770      	bx	lr
   803ae:	bf00      	nop
   803b0:	e000ed04 	.word	0xe000ed04

000803b4 <ulPortSetInterruptMask>:
   803b4:	f3ef 8011 	mrs	r0, BASEPRI
   803b8:	f04f 01a0 	mov.w	r1, #160	; 0xa0
   803bc:	f381 8811 	msr	BASEPRI, r1
   803c0:	4770      	bx	lr
   803c2:	2000      	movs	r0, #0

000803c4 <vPortEnterCritical>:
   803c4:	b508      	push	{r3, lr}
   803c6:	4b03      	ldr	r3, [pc, #12]	; (803d4 <vPortEnterCritical+0x10>)
   803c8:	4798      	blx	r3
   803ca:	4a03      	ldr	r2, [pc, #12]	; (803d8 <vPortEnterCritical+0x14>)
   803cc:	6813      	ldr	r3, [r2, #0]
   803ce:	3301      	adds	r3, #1
   803d0:	6013      	str	r3, [r2, #0]
   803d2:	bd08      	pop	{r3, pc}
   803d4:	000803b5 	.word	0x000803b5
   803d8:	2007012c 	.word	0x2007012c

000803dc <vPortClearInterruptMask>:
   803dc:	f380 8811 	msr	BASEPRI, r0
   803e0:	4770      	bx	lr
   803e2:	bf00      	nop

000803e4 <vPortExitCritical>:
   803e4:	b508      	push	{r3, lr}
   803e6:	4a04      	ldr	r2, [pc, #16]	; (803f8 <vPortExitCritical+0x14>)
   803e8:	6813      	ldr	r3, [r2, #0]
   803ea:	3b01      	subs	r3, #1
   803ec:	6013      	str	r3, [r2, #0]
   803ee:	b913      	cbnz	r3, 803f6 <vPortExitCritical+0x12>
   803f0:	2000      	movs	r0, #0
   803f2:	4b02      	ldr	r3, [pc, #8]	; (803fc <vPortExitCritical+0x18>)
   803f4:	4798      	blx	r3
   803f6:	bd08      	pop	{r3, pc}
   803f8:	2007012c 	.word	0x2007012c
   803fc:	000803dd 	.word	0x000803dd

00080400 <PendSV_Handler>:
   80400:	f3ef 8009 	mrs	r0, PSP
   80404:	4b0c      	ldr	r3, [pc, #48]	; (80438 <pxCurrentTCBConst>)
   80406:	681a      	ldr	r2, [r3, #0]
   80408:	e920 0ff0 	stmdb	r0!, {r4, r5, r6, r7, r8, r9, sl, fp}
   8040c:	6010      	str	r0, [r2, #0]
   8040e:	e92d 4008 	stmdb	sp!, {r3, lr}
   80412:	f04f 00a0 	mov.w	r0, #160	; 0xa0
   80416:	f380 8811 	msr	BASEPRI, r0
   8041a:	f000 fe8f 	bl	8113c <vTaskSwitchContext>
   8041e:	f04f 0000 	mov.w	r0, #0
   80422:	f380 8811 	msr	BASEPRI, r0
   80426:	e8bd 4008 	ldmia.w	sp!, {r3, lr}
   8042a:	6819      	ldr	r1, [r3, #0]
   8042c:	6808      	ldr	r0, [r1, #0]
   8042e:	e8b0 0ff0 	ldmia.w	r0!, {r4, r5, r6, r7, r8, r9, sl, fp}
   80432:	f380 8809 	msr	PSP, r0
   80436:	4770      	bx	lr

00080438 <pxCurrentTCBConst>:
   80438:	2007a660 	.word	0x2007a660

0008043c <SysTick_Handler>:
   8043c:	b508      	push	{r3, lr}
   8043e:	f04f 5280 	mov.w	r2, #268435456	; 0x10000000
   80442:	4b05      	ldr	r3, [pc, #20]	; (80458 <SysTick_Handler+0x1c>)
   80444:	601a      	str	r2, [r3, #0]
   80446:	4b05      	ldr	r3, [pc, #20]	; (8045c <SysTick_Handler+0x20>)
   80448:	4798      	blx	r3
   8044a:	4b05      	ldr	r3, [pc, #20]	; (80460 <SysTick_Handler+0x24>)
   8044c:	4798      	blx	r3
   8044e:	2000      	movs	r0, #0
   80450:	4b04      	ldr	r3, [pc, #16]	; (80464 <SysTick_Handler+0x28>)
   80452:	4798      	blx	r3
   80454:	bd08      	pop	{r3, pc}
   80456:	bf00      	nop
   80458:	e000ed04 	.word	0xe000ed04
   8045c:	000803b5 	.word	0x000803b5
   80460:	00080e4d 	.word	0x00080e4d
   80464:	000803dd 	.word	0x000803dd

00080468 <vPortSetupTimerInterrupt>:
   80468:	4a03      	ldr	r2, [pc, #12]	; (80478 <vPortSetupTimerInterrupt+0x10>)
   8046a:	4b04      	ldr	r3, [pc, #16]	; (8047c <vPortSetupTimerInterrupt+0x14>)
   8046c:	601a      	str	r2, [r3, #0]
   8046e:	2207      	movs	r2, #7
   80470:	3b04      	subs	r3, #4
   80472:	601a      	str	r2, [r3, #0]
   80474:	4770      	bx	lr
   80476:	bf00      	nop
   80478:	0001481f 	.word	0x0001481f
   8047c:	e000e014 	.word	0xe000e014

00080480 <xPortStartScheduler>:
   80480:	b510      	push	{r4, lr}
   80482:	4b09      	ldr	r3, [pc, #36]	; (804a8 <xPortStartScheduler+0x28>)
   80484:	681a      	ldr	r2, [r3, #0]
   80486:	f442 0270 	orr.w	r2, r2, #15728640	; 0xf00000
   8048a:	601a      	str	r2, [r3, #0]
   8048c:	681a      	ldr	r2, [r3, #0]
   8048e:	f042 4270 	orr.w	r2, r2, #4026531840	; 0xf0000000
   80492:	601a      	str	r2, [r3, #0]
   80494:	4b05      	ldr	r3, [pc, #20]	; (804ac <xPortStartScheduler+0x2c>)
   80496:	4798      	blx	r3
   80498:	2400      	movs	r4, #0
   8049a:	4b05      	ldr	r3, [pc, #20]	; (804b0 <xPortStartScheduler+0x30>)
   8049c:	601c      	str	r4, [r3, #0]
   8049e:	4b05      	ldr	r3, [pc, #20]	; (804b4 <xPortStartScheduler+0x34>)
   804a0:	4798      	blx	r3
   804a2:	4620      	mov	r0, r4
   804a4:	bd10      	pop	{r4, pc}
   804a6:	bf00      	nop
   804a8:	e000ed20 	.word	0xe000ed20
   804ac:	00080469 	.word	0x00080469
   804b0:	2007012c 	.word	0x2007012c
   804b4:	00080355 	.word	0x00080355

000804b8 <prvInsertBlockIntoFreeList>:
   804b8:	4a13      	ldr	r2, [pc, #76]	; (80508 <prvInsertBlockIntoFreeList+0x50>)
   804ba:	e000      	b.n	804be <prvInsertBlockIntoFreeList+0x6>
   804bc:	461a      	mov	r2, r3
   804be:	6813      	ldr	r3, [r2, #0]
   804c0:	4283      	cmp	r3, r0
   804c2:	d3fb      	bcc.n	804bc <prvInsertBlockIntoFreeList+0x4>
   804c4:	b430      	push	{r4, r5}
   804c6:	4611      	mov	r1, r2
   804c8:	6854      	ldr	r4, [r2, #4]
   804ca:	1915      	adds	r5, r2, r4
   804cc:	4285      	cmp	r5, r0
   804ce:	d103      	bne.n	804d8 <prvInsertBlockIntoFreeList+0x20>
   804d0:	6868      	ldr	r0, [r5, #4]
   804d2:	4404      	add	r4, r0
   804d4:	6054      	str	r4, [r2, #4]
   804d6:	4610      	mov	r0, r2
   804d8:	6842      	ldr	r2, [r0, #4]
   804da:	1884      	adds	r4, r0, r2
   804dc:	429c      	cmp	r4, r3
   804de:	d10c      	bne.n	804fa <prvInsertBlockIntoFreeList+0x42>
   804e0:	4b0a      	ldr	r3, [pc, #40]	; (8050c <prvInsertBlockIntoFreeList+0x54>)
   804e2:	681b      	ldr	r3, [r3, #0]
   804e4:	429c      	cmp	r4, r3
   804e6:	d006      	beq.n	804f6 <prvInsertBlockIntoFreeList+0x3e>
   804e8:	6863      	ldr	r3, [r4, #4]
   804ea:	441a      	add	r2, r3
   804ec:	6042      	str	r2, [r0, #4]
   804ee:	680b      	ldr	r3, [r1, #0]
   804f0:	681b      	ldr	r3, [r3, #0]
   804f2:	6003      	str	r3, [r0, #0]
   804f4:	e002      	b.n	804fc <prvInsertBlockIntoFreeList+0x44>
   804f6:	6004      	str	r4, [r0, #0]
   804f8:	e000      	b.n	804fc <prvInsertBlockIntoFreeList+0x44>
   804fa:	6003      	str	r3, [r0, #0]
   804fc:	4281      	cmp	r1, r0
   804fe:	bf18      	it	ne
   80500:	6008      	strne	r0, [r1, #0]
   80502:	bc30      	pop	{r4, r5}
   80504:	4770      	bx	lr
   80506:	bf00      	nop
   80508:	2007a58c 	.word	0x2007a58c
   8050c:	2007a588 	.word	0x2007a588

00080510 <pvPortMalloc>:
   80510:	b538      	push	{r3, r4, r5, lr}
   80512:	4604      	mov	r4, r0
   80514:	4b29      	ldr	r3, [pc, #164]	; (805bc <pvPortMalloc+0xac>)
   80516:	4798      	blx	r3
   80518:	4b29      	ldr	r3, [pc, #164]	; (805c0 <pvPortMalloc+0xb0>)
   8051a:	681b      	ldr	r3, [r3, #0]
   8051c:	b99b      	cbnz	r3, 80546 <pvPortMalloc+0x36>
   8051e:	4a29      	ldr	r2, [pc, #164]	; (805c4 <pvPortMalloc+0xb4>)
   80520:	4b29      	ldr	r3, [pc, #164]	; (805c8 <pvPortMalloc+0xb8>)
   80522:	6013      	str	r3, [r2, #0]
   80524:	2100      	movs	r1, #0
   80526:	6051      	str	r1, [r2, #4]
   80528:	f649 72f0 	movw	r2, #40944	; 0x9ff0
   8052c:	1898      	adds	r0, r3, r2
   8052e:	4d24      	ldr	r5, [pc, #144]	; (805c0 <pvPortMalloc+0xb0>)
   80530:	6028      	str	r0, [r5, #0]
   80532:	f649 75f4 	movw	r5, #40948	; 0x9ff4
   80536:	5159      	str	r1, [r3, r5]
   80538:	5099      	str	r1, [r3, r2]
   8053a:	605a      	str	r2, [r3, #4]
   8053c:	6018      	str	r0, [r3, #0]
   8053e:	4a23      	ldr	r2, [pc, #140]	; (805cc <pvPortMalloc+0xbc>)
   80540:	6813      	ldr	r3, [r2, #0]
   80542:	3b10      	subs	r3, #16
   80544:	6013      	str	r3, [r2, #0]
   80546:	2c00      	cmp	r4, #0
   80548:	d02e      	beq.n	805a8 <pvPortMalloc+0x98>
   8054a:	f104 0210 	add.w	r2, r4, #16
   8054e:	f012 0f07 	tst.w	r2, #7
   80552:	bf1c      	itt	ne
   80554:	f022 0207 	bicne.w	r2, r2, #7
   80558:	3208      	addne	r2, #8
   8055a:	1e51      	subs	r1, r2, #1
   8055c:	f649 73fe 	movw	r3, #40958	; 0x9ffe
   80560:	4299      	cmp	r1, r3
   80562:	d823      	bhi.n	805ac <pvPortMalloc+0x9c>
   80564:	4917      	ldr	r1, [pc, #92]	; (805c4 <pvPortMalloc+0xb4>)
   80566:	680c      	ldr	r4, [r1, #0]
   80568:	e001      	b.n	8056e <pvPortMalloc+0x5e>
   8056a:	4621      	mov	r1, r4
   8056c:	461c      	mov	r4, r3
   8056e:	6863      	ldr	r3, [r4, #4]
   80570:	429a      	cmp	r2, r3
   80572:	d902      	bls.n	8057a <pvPortMalloc+0x6a>
   80574:	6823      	ldr	r3, [r4, #0]
   80576:	2b00      	cmp	r3, #0
   80578:	d1f7      	bne.n	8056a <pvPortMalloc+0x5a>
   8057a:	4b11      	ldr	r3, [pc, #68]	; (805c0 <pvPortMalloc+0xb0>)
   8057c:	681b      	ldr	r3, [r3, #0]
   8057e:	429c      	cmp	r4, r3
   80580:	d016      	beq.n	805b0 <pvPortMalloc+0xa0>
   80582:	680d      	ldr	r5, [r1, #0]
   80584:	3510      	adds	r5, #16
   80586:	6823      	ldr	r3, [r4, #0]
   80588:	600b      	str	r3, [r1, #0]
   8058a:	6863      	ldr	r3, [r4, #4]
   8058c:	1a9b      	subs	r3, r3, r2
   8058e:	2b20      	cmp	r3, #32
   80590:	d904      	bls.n	8059c <pvPortMalloc+0x8c>
   80592:	18a0      	adds	r0, r4, r2
   80594:	6043      	str	r3, [r0, #4]
   80596:	6062      	str	r2, [r4, #4]
   80598:	4b0d      	ldr	r3, [pc, #52]	; (805d0 <pvPortMalloc+0xc0>)
   8059a:	4798      	blx	r3
   8059c:	4a0b      	ldr	r2, [pc, #44]	; (805cc <pvPortMalloc+0xbc>)
   8059e:	6813      	ldr	r3, [r2, #0]
   805a0:	6861      	ldr	r1, [r4, #4]
   805a2:	1a5b      	subs	r3, r3, r1
   805a4:	6013      	str	r3, [r2, #0]
   805a6:	e004      	b.n	805b2 <pvPortMalloc+0xa2>
   805a8:	2500      	movs	r5, #0
   805aa:	e002      	b.n	805b2 <pvPortMalloc+0xa2>
   805ac:	2500      	movs	r5, #0
   805ae:	e000      	b.n	805b2 <pvPortMalloc+0xa2>
   805b0:	2500      	movs	r5, #0
   805b2:	4b08      	ldr	r3, [pc, #32]	; (805d4 <pvPortMalloc+0xc4>)
   805b4:	4798      	blx	r3
   805b6:	4628      	mov	r0, r5
   805b8:	bd38      	pop	{r3, r4, r5, pc}
   805ba:	bf00      	nop
   805bc:	00080e1d 	.word	0x00080e1d
   805c0:	2007a588 	.word	0x2007a588
   805c4:	2007a58c 	.word	0x2007a58c
   805c8:	20070588 	.word	0x20070588
   805cc:	20070130 	.word	0x20070130
   805d0:	000804b9 	.word	0x000804b9
   805d4:	00080f6d 	.word	0x00080f6d

000805d8 <vPortFree>:
   805d8:	b180      	cbz	r0, 805fc <vPortFree+0x24>
   805da:	b510      	push	{r4, lr}
   805dc:	4604      	mov	r4, r0
   805de:	4b08      	ldr	r3, [pc, #32]	; (80600 <vPortFree+0x28>)
   805e0:	4798      	blx	r3
   805e2:	4a08      	ldr	r2, [pc, #32]	; (80604 <vPortFree+0x2c>)
   805e4:	6811      	ldr	r1, [r2, #0]
   805e6:	f854 3c0c 	ldr.w	r3, [r4, #-12]
   805ea:	440b      	add	r3, r1
   805ec:	6013      	str	r3, [r2, #0]
   805ee:	f1a4 0010 	sub.w	r0, r4, #16
   805f2:	4b05      	ldr	r3, [pc, #20]	; (80608 <vPortFree+0x30>)
   805f4:	4798      	blx	r3
   805f6:	4b05      	ldr	r3, [pc, #20]	; (8060c <vPortFree+0x34>)
   805f8:	4798      	blx	r3
   805fa:	bd10      	pop	{r4, pc}
   805fc:	4770      	bx	lr
   805fe:	bf00      	nop
   80600:	00080e1d 	.word	0x00080e1d
   80604:	20070130 	.word	0x20070130
   80608:	000804b9 	.word	0x000804b9
   8060c:	00080f6d 	.word	0x00080f6d

00080610 <prvCopyDataToQueue>:
   80610:	b510      	push	{r4, lr}
   80612:	4604      	mov	r4, r0
   80614:	6c03      	ldr	r3, [r0, #64]	; 0x40
   80616:	b93b      	cbnz	r3, 80628 <prvCopyDataToQueue+0x18>
   80618:	6803      	ldr	r3, [r0, #0]
   8061a:	bb1b      	cbnz	r3, 80664 <prvCopyDataToQueue+0x54>
   8061c:	6840      	ldr	r0, [r0, #4]
   8061e:	4b13      	ldr	r3, [pc, #76]	; (8066c <prvCopyDataToQueue+0x5c>)
   80620:	4798      	blx	r3
   80622:	2300      	movs	r3, #0
   80624:	6063      	str	r3, [r4, #4]
   80626:	e01d      	b.n	80664 <prvCopyDataToQueue+0x54>
   80628:	b96a      	cbnz	r2, 80646 <prvCopyDataToQueue+0x36>
   8062a:	6880      	ldr	r0, [r0, #8]
   8062c:	461a      	mov	r2, r3
   8062e:	4b10      	ldr	r3, [pc, #64]	; (80670 <prvCopyDataToQueue+0x60>)
   80630:	4798      	blx	r3
   80632:	68a2      	ldr	r2, [r4, #8]
   80634:	6c23      	ldr	r3, [r4, #64]	; 0x40
   80636:	4413      	add	r3, r2
   80638:	60a3      	str	r3, [r4, #8]
   8063a:	6862      	ldr	r2, [r4, #4]
   8063c:	4293      	cmp	r3, r2
   8063e:	d311      	bcc.n	80664 <prvCopyDataToQueue+0x54>
   80640:	6823      	ldr	r3, [r4, #0]
   80642:	60a3      	str	r3, [r4, #8]
   80644:	e00e      	b.n	80664 <prvCopyDataToQueue+0x54>
   80646:	68c0      	ldr	r0, [r0, #12]
   80648:	461a      	mov	r2, r3
   8064a:	4b09      	ldr	r3, [pc, #36]	; (80670 <prvCopyDataToQueue+0x60>)
   8064c:	4798      	blx	r3
   8064e:	6c23      	ldr	r3, [r4, #64]	; 0x40
   80650:	425b      	negs	r3, r3
   80652:	68e2      	ldr	r2, [r4, #12]
   80654:	441a      	add	r2, r3
   80656:	60e2      	str	r2, [r4, #12]
   80658:	6821      	ldr	r1, [r4, #0]
   8065a:	428a      	cmp	r2, r1
   8065c:	d202      	bcs.n	80664 <prvCopyDataToQueue+0x54>
   8065e:	6862      	ldr	r2, [r4, #4]
   80660:	4413      	add	r3, r2
   80662:	60e3      	str	r3, [r4, #12]
   80664:	6ba3      	ldr	r3, [r4, #56]	; 0x38
   80666:	3301      	adds	r3, #1
   80668:	63a3      	str	r3, [r4, #56]	; 0x38
   8066a:	bd10      	pop	{r4, pc}
   8066c:	0008146d 	.word	0x0008146d
   80670:	000820b9 	.word	0x000820b9

00080674 <prvCopyDataFromQueue>:
   80674:	b538      	push	{r3, r4, r5, lr}
   80676:	4603      	mov	r3, r0
   80678:	6800      	ldr	r0, [r0, #0]
   8067a:	b158      	cbz	r0, 80694 <prvCopyDataFromQueue+0x20>
   8067c:	6c1a      	ldr	r2, [r3, #64]	; 0x40
   8067e:	68dc      	ldr	r4, [r3, #12]
   80680:	4414      	add	r4, r2
   80682:	60dc      	str	r4, [r3, #12]
   80684:	685d      	ldr	r5, [r3, #4]
   80686:	42ac      	cmp	r4, r5
   80688:	bf28      	it	cs
   8068a:	60d8      	strcs	r0, [r3, #12]
   8068c:	4608      	mov	r0, r1
   8068e:	68d9      	ldr	r1, [r3, #12]
   80690:	4b01      	ldr	r3, [pc, #4]	; (80698 <prvCopyDataFromQueue+0x24>)
   80692:	4798      	blx	r3
   80694:	bd38      	pop	{r3, r4, r5, pc}
   80696:	bf00      	nop
   80698:	000820b9 	.word	0x000820b9

0008069c <prvUnlockQueue>:
   8069c:	b5f8      	push	{r3, r4, r5, r6, r7, lr}
   8069e:	4604      	mov	r4, r0
   806a0:	4b1e      	ldr	r3, [pc, #120]	; (8071c <prvUnlockQueue+0x80>)
   806a2:	4798      	blx	r3
   806a4:	6ca3      	ldr	r3, [r4, #72]	; 0x48
   806a6:	2b00      	cmp	r3, #0
   806a8:	dd13      	ble.n	806d2 <prvUnlockQueue+0x36>
   806aa:	6a63      	ldr	r3, [r4, #36]	; 0x24
   806ac:	b91b      	cbnz	r3, 806b6 <prvUnlockQueue+0x1a>
   806ae:	e010      	b.n	806d2 <prvUnlockQueue+0x36>
   806b0:	6a63      	ldr	r3, [r4, #36]	; 0x24
   806b2:	b923      	cbnz	r3, 806be <prvUnlockQueue+0x22>
   806b4:	e00d      	b.n	806d2 <prvUnlockQueue+0x36>
   806b6:	f104 0624 	add.w	r6, r4, #36	; 0x24
   806ba:	4d19      	ldr	r5, [pc, #100]	; (80720 <prvUnlockQueue+0x84>)
   806bc:	4f19      	ldr	r7, [pc, #100]	; (80724 <prvUnlockQueue+0x88>)
   806be:	4630      	mov	r0, r6
   806c0:	47a8      	blx	r5
   806c2:	b100      	cbz	r0, 806c6 <prvUnlockQueue+0x2a>
   806c4:	47b8      	blx	r7
   806c6:	6ca3      	ldr	r3, [r4, #72]	; 0x48
   806c8:	3b01      	subs	r3, #1
   806ca:	64a3      	str	r3, [r4, #72]	; 0x48
   806cc:	6ca3      	ldr	r3, [r4, #72]	; 0x48
   806ce:	2b00      	cmp	r3, #0
   806d0:	dcee      	bgt.n	806b0 <prvUnlockQueue+0x14>
   806d2:	f04f 33ff 	mov.w	r3, #4294967295
   806d6:	64a3      	str	r3, [r4, #72]	; 0x48
   806d8:	4b13      	ldr	r3, [pc, #76]	; (80728 <prvUnlockQueue+0x8c>)
   806da:	4798      	blx	r3
   806dc:	4b0f      	ldr	r3, [pc, #60]	; (8071c <prvUnlockQueue+0x80>)
   806de:	4798      	blx	r3
   806e0:	6c63      	ldr	r3, [r4, #68]	; 0x44
   806e2:	2b00      	cmp	r3, #0
   806e4:	dd13      	ble.n	8070e <prvUnlockQueue+0x72>
   806e6:	6923      	ldr	r3, [r4, #16]
   806e8:	b91b      	cbnz	r3, 806f2 <prvUnlockQueue+0x56>
   806ea:	e010      	b.n	8070e <prvUnlockQueue+0x72>
   806ec:	6923      	ldr	r3, [r4, #16]
   806ee:	b923      	cbnz	r3, 806fa <prvUnlockQueue+0x5e>
   806f0:	e00d      	b.n	8070e <prvUnlockQueue+0x72>
   806f2:	f104 0610 	add.w	r6, r4, #16
   806f6:	4d0a      	ldr	r5, [pc, #40]	; (80720 <prvUnlockQueue+0x84>)
   806f8:	4f0a      	ldr	r7, [pc, #40]	; (80724 <prvUnlockQueue+0x88>)
   806fa:	4630      	mov	r0, r6
   806fc:	47a8      	blx	r5
   806fe:	b100      	cbz	r0, 80702 <prvUnlockQueue+0x66>
   80700:	47b8      	blx	r7
   80702:	6c63      	ldr	r3, [r4, #68]	; 0x44
   80704:	3b01      	subs	r3, #1
   80706:	6463      	str	r3, [r4, #68]	; 0x44
   80708:	6c63      	ldr	r3, [r4, #68]	; 0x44
   8070a:	2b00      	cmp	r3, #0
   8070c:	dcee      	bgt.n	806ec <prvUnlockQueue+0x50>
   8070e:	f04f 33ff 	mov.w	r3, #4294967295
   80712:	6463      	str	r3, [r4, #68]	; 0x44
   80714:	4b04      	ldr	r3, [pc, #16]	; (80728 <prvUnlockQueue+0x8c>)
   80716:	4798      	blx	r3
   80718:	bdf8      	pop	{r3, r4, r5, r6, r7, pc}
   8071a:	bf00      	nop
   8071c:	000803c5 	.word	0x000803c5
   80720:	00081285 	.word	0x00081285
   80724:	000813b5 	.word	0x000813b5
   80728:	000803e5 	.word	0x000803e5

0008072c <xQueueGenericReset>:
   8072c:	b538      	push	{r3, r4, r5, lr}
   8072e:	b918      	cbnz	r0, 80738 <xQueueGenericReset+0xc>
   80730:	4b17      	ldr	r3, [pc, #92]	; (80790 <xQueueGenericReset+0x64>)
   80732:	4798      	blx	r3
   80734:	bf00      	nop
   80736:	e7fd      	b.n	80734 <xQueueGenericReset+0x8>
   80738:	460d      	mov	r5, r1
   8073a:	4604      	mov	r4, r0
   8073c:	4b15      	ldr	r3, [pc, #84]	; (80794 <xQueueGenericReset+0x68>)
   8073e:	4798      	blx	r3
   80740:	6822      	ldr	r2, [r4, #0]
   80742:	6c21      	ldr	r1, [r4, #64]	; 0x40
   80744:	6be3      	ldr	r3, [r4, #60]	; 0x3c
   80746:	fb03 f301 	mul.w	r3, r3, r1
   8074a:	18d0      	adds	r0, r2, r3
   8074c:	6060      	str	r0, [r4, #4]
   8074e:	2000      	movs	r0, #0
   80750:	63a0      	str	r0, [r4, #56]	; 0x38
   80752:	60a2      	str	r2, [r4, #8]
   80754:	1a5b      	subs	r3, r3, r1
   80756:	4413      	add	r3, r2
   80758:	60e3      	str	r3, [r4, #12]
   8075a:	f04f 33ff 	mov.w	r3, #4294967295
   8075e:	6463      	str	r3, [r4, #68]	; 0x44
   80760:	64a3      	str	r3, [r4, #72]	; 0x48
   80762:	b955      	cbnz	r5, 8077a <xQueueGenericReset+0x4e>
   80764:	6923      	ldr	r3, [r4, #16]
   80766:	b17b      	cbz	r3, 80788 <xQueueGenericReset+0x5c>
   80768:	f104 0010 	add.w	r0, r4, #16
   8076c:	4b0a      	ldr	r3, [pc, #40]	; (80798 <xQueueGenericReset+0x6c>)
   8076e:	4798      	blx	r3
   80770:	2801      	cmp	r0, #1
   80772:	d109      	bne.n	80788 <xQueueGenericReset+0x5c>
   80774:	4b09      	ldr	r3, [pc, #36]	; (8079c <xQueueGenericReset+0x70>)
   80776:	4798      	blx	r3
   80778:	e006      	b.n	80788 <xQueueGenericReset+0x5c>
   8077a:	f104 0010 	add.w	r0, r4, #16
   8077e:	4d08      	ldr	r5, [pc, #32]	; (807a0 <xQueueGenericReset+0x74>)
   80780:	47a8      	blx	r5
   80782:	f104 0024 	add.w	r0, r4, #36	; 0x24
   80786:	47a8      	blx	r5
   80788:	4b06      	ldr	r3, [pc, #24]	; (807a4 <xQueueGenericReset+0x78>)
   8078a:	4798      	blx	r3
   8078c:	2001      	movs	r0, #1
   8078e:	bd38      	pop	{r3, r4, r5, pc}
   80790:	000803b5 	.word	0x000803b5
   80794:	000803c5 	.word	0x000803c5
   80798:	00081285 	.word	0x00081285
   8079c:	000803a5 	.word	0x000803a5
   807a0:	000802b5 	.word	0x000802b5
   807a4:	000803e5 	.word	0x000803e5

000807a8 <xQueueGenericCreate>:
   807a8:	b5f8      	push	{r3, r4, r5, r6, r7, lr}
   807aa:	b1a0      	cbz	r0, 807d6 <xQueueGenericCreate+0x2e>
   807ac:	460d      	mov	r5, r1
   807ae:	4617      	mov	r7, r2
   807b0:	4606      	mov	r6, r0
   807b2:	2050      	movs	r0, #80	; 0x50
   807b4:	4b0e      	ldr	r3, [pc, #56]	; (807f0 <xQueueGenericCreate+0x48>)
   807b6:	4798      	blx	r3
   807b8:	4604      	mov	r4, r0
   807ba:	b160      	cbz	r0, 807d6 <xQueueGenericCreate+0x2e>
   807bc:	fb05 f006 	mul.w	r0, r5, r6
   807c0:	3001      	adds	r0, #1
   807c2:	4b0b      	ldr	r3, [pc, #44]	; (807f0 <xQueueGenericCreate+0x48>)
   807c4:	4798      	blx	r3
   807c6:	6020      	str	r0, [r4, #0]
   807c8:	b940      	cbnz	r0, 807dc <xQueueGenericCreate+0x34>
   807ca:	4620      	mov	r0, r4
   807cc:	4b09      	ldr	r3, [pc, #36]	; (807f4 <xQueueGenericCreate+0x4c>)
   807ce:	4798      	blx	r3
   807d0:	e001      	b.n	807d6 <xQueueGenericCreate+0x2e>
   807d2:	bf00      	nop
   807d4:	e7fd      	b.n	807d2 <xQueueGenericCreate+0x2a>
   807d6:	4b08      	ldr	r3, [pc, #32]	; (807f8 <xQueueGenericCreate+0x50>)
   807d8:	4798      	blx	r3
   807da:	e7fa      	b.n	807d2 <xQueueGenericCreate+0x2a>
   807dc:	63e6      	str	r6, [r4, #60]	; 0x3c
   807de:	6425      	str	r5, [r4, #64]	; 0x40
   807e0:	4620      	mov	r0, r4
   807e2:	2101      	movs	r1, #1
   807e4:	4b05      	ldr	r3, [pc, #20]	; (807fc <xQueueGenericCreate+0x54>)
   807e6:	4798      	blx	r3
   807e8:	f884 704d 	strb.w	r7, [r4, #77]	; 0x4d
   807ec:	4620      	mov	r0, r4
   807ee:	bdf8      	pop	{r3, r4, r5, r6, r7, pc}
   807f0:	00080511 	.word	0x00080511
   807f4:	000805d9 	.word	0x000805d9
   807f8:	000803b5 	.word	0x000803b5
   807fc:	0008072d 	.word	0x0008072d

00080800 <xQueueGenericSend>:
   80800:	e92d 4ff0 	stmdb	sp!, {r4, r5, r6, r7, r8, r9, sl, fp, lr}
   80804:	b085      	sub	sp, #20
   80806:	9201      	str	r2, [sp, #4]
   80808:	9300      	str	r3, [sp, #0]
   8080a:	b918      	cbnz	r0, 80814 <xQueueGenericSend+0x14>
   8080c:	4b38      	ldr	r3, [pc, #224]	; (808f0 <xQueueGenericSend+0xf0>)
   8080e:	4798      	blx	r3
   80810:	bf00      	nop
   80812:	e7fd      	b.n	80810 <xQueueGenericSend+0x10>
   80814:	468a      	mov	sl, r1
   80816:	4604      	mov	r4, r0
   80818:	b929      	cbnz	r1, 80826 <xQueueGenericSend+0x26>
   8081a:	6c03      	ldr	r3, [r0, #64]	; 0x40
   8081c:	b12b      	cbz	r3, 8082a <xQueueGenericSend+0x2a>
   8081e:	4b34      	ldr	r3, [pc, #208]	; (808f0 <xQueueGenericSend+0xf0>)
   80820:	4798      	blx	r3
   80822:	bf00      	nop
   80824:	e7fd      	b.n	80822 <xQueueGenericSend+0x22>
   80826:	2700      	movs	r7, #0
   80828:	e000      	b.n	8082c <xQueueGenericSend+0x2c>
   8082a:	2700      	movs	r7, #0
   8082c:	4e31      	ldr	r6, [pc, #196]	; (808f4 <xQueueGenericSend+0xf4>)
   8082e:	f8df b0ec 	ldr.w	fp, [pc, #236]	; 8091c <xQueueGenericSend+0x11c>
   80832:	4d31      	ldr	r5, [pc, #196]	; (808f8 <xQueueGenericSend+0xf8>)
   80834:	47b0      	blx	r6
   80836:	6ba2      	ldr	r2, [r4, #56]	; 0x38
   80838:	6be3      	ldr	r3, [r4, #60]	; 0x3c
   8083a:	429a      	cmp	r2, r3
   8083c:	d212      	bcs.n	80864 <xQueueGenericSend+0x64>
   8083e:	4620      	mov	r0, r4
   80840:	4651      	mov	r1, sl
   80842:	9a00      	ldr	r2, [sp, #0]
   80844:	4b2d      	ldr	r3, [pc, #180]	; (808fc <xQueueGenericSend+0xfc>)
   80846:	4798      	blx	r3
   80848:	6a63      	ldr	r3, [r4, #36]	; 0x24
   8084a:	b13b      	cbz	r3, 8085c <xQueueGenericSend+0x5c>
   8084c:	f104 0024 	add.w	r0, r4, #36	; 0x24
   80850:	4b2b      	ldr	r3, [pc, #172]	; (80900 <xQueueGenericSend+0x100>)
   80852:	4798      	blx	r3
   80854:	2801      	cmp	r0, #1
   80856:	d101      	bne.n	8085c <xQueueGenericSend+0x5c>
   80858:	4b2a      	ldr	r3, [pc, #168]	; (80904 <xQueueGenericSend+0x104>)
   8085a:	4798      	blx	r3
   8085c:	4b26      	ldr	r3, [pc, #152]	; (808f8 <xQueueGenericSend+0xf8>)
   8085e:	4798      	blx	r3
   80860:	2001      	movs	r0, #1
   80862:	e042      	b.n	808ea <xQueueGenericSend+0xea>
   80864:	9b01      	ldr	r3, [sp, #4]
   80866:	b91b      	cbnz	r3, 80870 <xQueueGenericSend+0x70>
   80868:	4b23      	ldr	r3, [pc, #140]	; (808f8 <xQueueGenericSend+0xf8>)
   8086a:	4798      	blx	r3
   8086c:	2000      	movs	r0, #0
   8086e:	e03c      	b.n	808ea <xQueueGenericSend+0xea>
   80870:	b917      	cbnz	r7, 80878 <xQueueGenericSend+0x78>
   80872:	a802      	add	r0, sp, #8
   80874:	47d8      	blx	fp
   80876:	2701      	movs	r7, #1
   80878:	47a8      	blx	r5
   8087a:	4b23      	ldr	r3, [pc, #140]	; (80908 <xQueueGenericSend+0x108>)
   8087c:	4798      	blx	r3
   8087e:	47b0      	blx	r6
   80880:	6c63      	ldr	r3, [r4, #68]	; 0x44
   80882:	f1b3 3fff 	cmp.w	r3, #4294967295
   80886:	bf04      	itt	eq
   80888:	2300      	moveq	r3, #0
   8088a:	6463      	streq	r3, [r4, #68]	; 0x44
   8088c:	6ca3      	ldr	r3, [r4, #72]	; 0x48
   8088e:	f1b3 3fff 	cmp.w	r3, #4294967295
   80892:	bf04      	itt	eq
   80894:	2300      	moveq	r3, #0
   80896:	64a3      	streq	r3, [r4, #72]	; 0x48
   80898:	47a8      	blx	r5
   8089a:	a802      	add	r0, sp, #8
   8089c:	a901      	add	r1, sp, #4
   8089e:	4b1b      	ldr	r3, [pc, #108]	; (8090c <xQueueGenericSend+0x10c>)
   808a0:	4798      	blx	r3
   808a2:	b9e0      	cbnz	r0, 808de <xQueueGenericSend+0xde>
   808a4:	47b0      	blx	r6
   808a6:	f8d4 9038 	ldr.w	r9, [r4, #56]	; 0x38
   808aa:	f8d4 803c 	ldr.w	r8, [r4, #60]	; 0x3c
   808ae:	47a8      	blx	r5
   808b0:	45c1      	cmp	r9, r8
   808b2:	d10e      	bne.n	808d2 <xQueueGenericSend+0xd2>
   808b4:	f104 0010 	add.w	r0, r4, #16
   808b8:	9901      	ldr	r1, [sp, #4]
   808ba:	4b15      	ldr	r3, [pc, #84]	; (80910 <xQueueGenericSend+0x110>)
   808bc:	4798      	blx	r3
   808be:	4620      	mov	r0, r4
   808c0:	4b14      	ldr	r3, [pc, #80]	; (80914 <xQueueGenericSend+0x114>)
   808c2:	4798      	blx	r3
   808c4:	4b14      	ldr	r3, [pc, #80]	; (80918 <xQueueGenericSend+0x118>)
   808c6:	4798      	blx	r3
   808c8:	2800      	cmp	r0, #0
   808ca:	d1b3      	bne.n	80834 <xQueueGenericSend+0x34>
   808cc:	4b0d      	ldr	r3, [pc, #52]	; (80904 <xQueueGenericSend+0x104>)
   808ce:	4798      	blx	r3
   808d0:	e7b0      	b.n	80834 <xQueueGenericSend+0x34>
   808d2:	4620      	mov	r0, r4
   808d4:	4b0f      	ldr	r3, [pc, #60]	; (80914 <xQueueGenericSend+0x114>)
   808d6:	4798      	blx	r3
   808d8:	4b0f      	ldr	r3, [pc, #60]	; (80918 <xQueueGenericSend+0x118>)
   808da:	4798      	blx	r3
   808dc:	e7aa      	b.n	80834 <xQueueGenericSend+0x34>
   808de:	4620      	mov	r0, r4
   808e0:	4b0c      	ldr	r3, [pc, #48]	; (80914 <xQueueGenericSend+0x114>)
   808e2:	4798      	blx	r3
   808e4:	4b0c      	ldr	r3, [pc, #48]	; (80918 <xQueueGenericSend+0x118>)
   808e6:	4798      	blx	r3
   808e8:	2000      	movs	r0, #0
   808ea:	b005      	add	sp, #20
   808ec:	e8bd 8ff0 	ldmia.w	sp!, {r4, r5, r6, r7, r8, r9, sl, fp, pc}
   808f0:	000803b5 	.word	0x000803b5
   808f4:	000803c5 	.word	0x000803c5
   808f8:	000803e5 	.word	0x000803e5
   808fc:	00080611 	.word	0x00080611
   80900:	00081285 	.word	0x00081285
   80904:	000803a5 	.word	0x000803a5
   80908:	00080e1d 	.word	0x00080e1d
   8090c:	00081331 	.word	0x00081331
   80910:	000811e1 	.word	0x000811e1
   80914:	0008069d 	.word	0x0008069d
   80918:	00080f6d 	.word	0x00080f6d
   8091c:	00081309 	.word	0x00081309

00080920 <xQueueGenericSendFromISR>:
   80920:	e92d 41f0 	stmdb	sp!, {r4, r5, r6, r7, r8, lr}
   80924:	b918      	cbnz	r0, 8092e <xQueueGenericSendFromISR+0xe>
   80926:	4b1e      	ldr	r3, [pc, #120]	; (809a0 <xQueueGenericSendFromISR+0x80>)
   80928:	4798      	blx	r3
   8092a:	bf00      	nop
   8092c:	e7fd      	b.n	8092a <xQueueGenericSendFromISR+0xa>
   8092e:	460e      	mov	r6, r1
   80930:	4615      	mov	r5, r2
   80932:	4698      	mov	r8, r3
   80934:	4604      	mov	r4, r0
   80936:	b929      	cbnz	r1, 80944 <xQueueGenericSendFromISR+0x24>
   80938:	6c03      	ldr	r3, [r0, #64]	; 0x40
   8093a:	b11b      	cbz	r3, 80944 <xQueueGenericSendFromISR+0x24>
   8093c:	4b18      	ldr	r3, [pc, #96]	; (809a0 <xQueueGenericSendFromISR+0x80>)
   8093e:	4798      	blx	r3
   80940:	bf00      	nop
   80942:	e7fd      	b.n	80940 <xQueueGenericSendFromISR+0x20>
   80944:	4b16      	ldr	r3, [pc, #88]	; (809a0 <xQueueGenericSendFromISR+0x80>)
   80946:	4798      	blx	r3
   80948:	4607      	mov	r7, r0
   8094a:	6ba2      	ldr	r2, [r4, #56]	; 0x38
   8094c:	6be3      	ldr	r3, [r4, #60]	; 0x3c
   8094e:	429a      	cmp	r2, r3
   80950:	d218      	bcs.n	80984 <xQueueGenericSendFromISR+0x64>
   80952:	4620      	mov	r0, r4
   80954:	4631      	mov	r1, r6
   80956:	4642      	mov	r2, r8
   80958:	4b12      	ldr	r3, [pc, #72]	; (809a4 <xQueueGenericSendFromISR+0x84>)
   8095a:	4798      	blx	r3
   8095c:	6ca3      	ldr	r3, [r4, #72]	; 0x48
   8095e:	f1b3 3fff 	cmp.w	r3, #4294967295
   80962:	d10a      	bne.n	8097a <xQueueGenericSendFromISR+0x5a>
   80964:	6a63      	ldr	r3, [r4, #36]	; 0x24
   80966:	b17b      	cbz	r3, 80988 <xQueueGenericSendFromISR+0x68>
   80968:	f104 0024 	add.w	r0, r4, #36	; 0x24
   8096c:	4b0e      	ldr	r3, [pc, #56]	; (809a8 <xQueueGenericSendFromISR+0x88>)
   8096e:	4798      	blx	r3
   80970:	b160      	cbz	r0, 8098c <xQueueGenericSendFromISR+0x6c>
   80972:	b16d      	cbz	r5, 80990 <xQueueGenericSendFromISR+0x70>
   80974:	2401      	movs	r4, #1
   80976:	602c      	str	r4, [r5, #0]
   80978:	e00b      	b.n	80992 <xQueueGenericSendFromISR+0x72>
   8097a:	6ca3      	ldr	r3, [r4, #72]	; 0x48
   8097c:	3301      	adds	r3, #1
   8097e:	64a3      	str	r3, [r4, #72]	; 0x48
   80980:	2401      	movs	r4, #1
   80982:	e006      	b.n	80992 <xQueueGenericSendFromISR+0x72>
   80984:	2400      	movs	r4, #0
   80986:	e004      	b.n	80992 <xQueueGenericSendFromISR+0x72>
   80988:	2401      	movs	r4, #1
   8098a:	e002      	b.n	80992 <xQueueGenericSendFromISR+0x72>
   8098c:	2401      	movs	r4, #1
   8098e:	e000      	b.n	80992 <xQueueGenericSendFromISR+0x72>
   80990:	2401      	movs	r4, #1
   80992:	4638      	mov	r0, r7
   80994:	4b05      	ldr	r3, [pc, #20]	; (809ac <xQueueGenericSendFromISR+0x8c>)
   80996:	4798      	blx	r3
   80998:	4620      	mov	r0, r4
   8099a:	e8bd 81f0 	ldmia.w	sp!, {r4, r5, r6, r7, r8, pc}
   8099e:	bf00      	nop
   809a0:	000803b5 	.word	0x000803b5
   809a4:	00080611 	.word	0x00080611
   809a8:	00081285 	.word	0x00081285
   809ac:	000803dd 	.word	0x000803dd

000809b0 <xQueueGenericReceive>:
   809b0:	e92d 4ff0 	stmdb	sp!, {r4, r5, r6, r7, r8, r9, sl, fp, lr}
   809b4:	b085      	sub	sp, #20
   809b6:	9201      	str	r2, [sp, #4]
   809b8:	b918      	cbnz	r0, 809c2 <xQueueGenericReceive+0x12>
   809ba:	4b46      	ldr	r3, [pc, #280]	; (80ad4 <xQueueGenericReceive+0x124>)
   809bc:	4798      	blx	r3
   809be:	bf00      	nop
   809c0:	e7fd      	b.n	809be <xQueueGenericReceive+0xe>
   809c2:	4689      	mov	r9, r1
   809c4:	469a      	mov	sl, r3
   809c6:	4604      	mov	r4, r0
   809c8:	b929      	cbnz	r1, 809d6 <xQueueGenericReceive+0x26>
   809ca:	6c03      	ldr	r3, [r0, #64]	; 0x40
   809cc:	b12b      	cbz	r3, 809da <xQueueGenericReceive+0x2a>
   809ce:	4b41      	ldr	r3, [pc, #260]	; (80ad4 <xQueueGenericReceive+0x124>)
   809d0:	4798      	blx	r3
   809d2:	bf00      	nop
   809d4:	e7fd      	b.n	809d2 <xQueueGenericReceive+0x22>
   809d6:	2700      	movs	r7, #0
   809d8:	e000      	b.n	809dc <xQueueGenericReceive+0x2c>
   809da:	2700      	movs	r7, #0
   809dc:	4e3e      	ldr	r6, [pc, #248]	; (80ad8 <xQueueGenericReceive+0x128>)
   809de:	f8df b128 	ldr.w	fp, [pc, #296]	; 80b08 <xQueueGenericReceive+0x158>
   809e2:	4d3e      	ldr	r5, [pc, #248]	; (80adc <xQueueGenericReceive+0x12c>)
   809e4:	47b0      	blx	r6
   809e6:	6ba3      	ldr	r3, [r4, #56]	; 0x38
   809e8:	b343      	cbz	r3, 80a3c <xQueueGenericReceive+0x8c>
   809ea:	68e5      	ldr	r5, [r4, #12]
   809ec:	4620      	mov	r0, r4
   809ee:	4649      	mov	r1, r9
   809f0:	4b3b      	ldr	r3, [pc, #236]	; (80ae0 <xQueueGenericReceive+0x130>)
   809f2:	4798      	blx	r3
   809f4:	f1ba 0f00 	cmp.w	sl, #0
   809f8:	d112      	bne.n	80a20 <xQueueGenericReceive+0x70>
   809fa:	6ba3      	ldr	r3, [r4, #56]	; 0x38
   809fc:	3b01      	subs	r3, #1
   809fe:	63a3      	str	r3, [r4, #56]	; 0x38
   80a00:	6823      	ldr	r3, [r4, #0]
   80a02:	b913      	cbnz	r3, 80a0a <xQueueGenericReceive+0x5a>
   80a04:	4b37      	ldr	r3, [pc, #220]	; (80ae4 <xQueueGenericReceive+0x134>)
   80a06:	4798      	blx	r3
   80a08:	6060      	str	r0, [r4, #4]
   80a0a:	6923      	ldr	r3, [r4, #16]
   80a0c:	b193      	cbz	r3, 80a34 <xQueueGenericReceive+0x84>
   80a0e:	f104 0010 	add.w	r0, r4, #16
   80a12:	4b35      	ldr	r3, [pc, #212]	; (80ae8 <xQueueGenericReceive+0x138>)
   80a14:	4798      	blx	r3
   80a16:	2801      	cmp	r0, #1
   80a18:	d10c      	bne.n	80a34 <xQueueGenericReceive+0x84>
   80a1a:	4b34      	ldr	r3, [pc, #208]	; (80aec <xQueueGenericReceive+0x13c>)
   80a1c:	4798      	blx	r3
   80a1e:	e009      	b.n	80a34 <xQueueGenericReceive+0x84>
   80a20:	60e5      	str	r5, [r4, #12]
   80a22:	6a63      	ldr	r3, [r4, #36]	; 0x24
   80a24:	b133      	cbz	r3, 80a34 <xQueueGenericReceive+0x84>
   80a26:	f104 0024 	add.w	r0, r4, #36	; 0x24
   80a2a:	4b2f      	ldr	r3, [pc, #188]	; (80ae8 <xQueueGenericReceive+0x138>)
   80a2c:	4798      	blx	r3
   80a2e:	b108      	cbz	r0, 80a34 <xQueueGenericReceive+0x84>
   80a30:	4b2e      	ldr	r3, [pc, #184]	; (80aec <xQueueGenericReceive+0x13c>)
   80a32:	4798      	blx	r3
   80a34:	4b29      	ldr	r3, [pc, #164]	; (80adc <xQueueGenericReceive+0x12c>)
   80a36:	4798      	blx	r3
   80a38:	2001      	movs	r0, #1
   80a3a:	e048      	b.n	80ace <xQueueGenericReceive+0x11e>
   80a3c:	9b01      	ldr	r3, [sp, #4]
   80a3e:	b91b      	cbnz	r3, 80a48 <xQueueGenericReceive+0x98>
   80a40:	4b26      	ldr	r3, [pc, #152]	; (80adc <xQueueGenericReceive+0x12c>)
   80a42:	4798      	blx	r3
   80a44:	2000      	movs	r0, #0
   80a46:	e042      	b.n	80ace <xQueueGenericReceive+0x11e>
   80a48:	b917      	cbnz	r7, 80a50 <xQueueGenericReceive+0xa0>
   80a4a:	a802      	add	r0, sp, #8
   80a4c:	47d8      	blx	fp
   80a4e:	2701      	movs	r7, #1
   80a50:	47a8      	blx	r5
   80a52:	4b27      	ldr	r3, [pc, #156]	; (80af0 <xQueueGenericReceive+0x140>)
   80a54:	4798      	blx	r3
   80a56:	47b0      	blx	r6
   80a58:	6c63      	ldr	r3, [r4, #68]	; 0x44
   80a5a:	f1b3 3fff 	cmp.w	r3, #4294967295
   80a5e:	bf04      	itt	eq
   80a60:	2300      	moveq	r3, #0
   80a62:	6463      	streq	r3, [r4, #68]	; 0x44
   80a64:	6ca3      	ldr	r3, [r4, #72]	; 0x48
   80a66:	f1b3 3fff 	cmp.w	r3, #4294967295
   80a6a:	bf04      	itt	eq
   80a6c:	2300      	moveq	r3, #0
   80a6e:	64a3      	streq	r3, [r4, #72]	; 0x48
   80a70:	47a8      	blx	r5
   80a72:	a802      	add	r0, sp, #8
   80a74:	a901      	add	r1, sp, #4
   80a76:	4b1f      	ldr	r3, [pc, #124]	; (80af4 <xQueueGenericReceive+0x144>)
   80a78:	4798      	blx	r3
   80a7a:	bb10      	cbnz	r0, 80ac2 <xQueueGenericReceive+0x112>
   80a7c:	47b0      	blx	r6
   80a7e:	f8d4 8038 	ldr.w	r8, [r4, #56]	; 0x38
   80a82:	47a8      	blx	r5
   80a84:	f1b8 0f00 	cmp.w	r8, #0
   80a88:	d115      	bne.n	80ab6 <xQueueGenericReceive+0x106>
   80a8a:	6823      	ldr	r3, [r4, #0]
   80a8c:	b923      	cbnz	r3, 80a98 <xQueueGenericReceive+0xe8>
   80a8e:	47b0      	blx	r6
   80a90:	6860      	ldr	r0, [r4, #4]
   80a92:	4b19      	ldr	r3, [pc, #100]	; (80af8 <xQueueGenericReceive+0x148>)
   80a94:	4798      	blx	r3
   80a96:	47a8      	blx	r5
   80a98:	f104 0024 	add.w	r0, r4, #36	; 0x24
   80a9c:	9901      	ldr	r1, [sp, #4]
   80a9e:	4b17      	ldr	r3, [pc, #92]	; (80afc <xQueueGenericReceive+0x14c>)
   80aa0:	4798      	blx	r3
   80aa2:	4620      	mov	r0, r4
   80aa4:	4b16      	ldr	r3, [pc, #88]	; (80b00 <xQueueGenericReceive+0x150>)
   80aa6:	4798      	blx	r3
   80aa8:	4b16      	ldr	r3, [pc, #88]	; (80b04 <xQueueGenericReceive+0x154>)
   80aaa:	4798      	blx	r3
   80aac:	2800      	cmp	r0, #0
   80aae:	d199      	bne.n	809e4 <xQueueGenericReceive+0x34>
   80ab0:	4b0e      	ldr	r3, [pc, #56]	; (80aec <xQueueGenericReceive+0x13c>)
   80ab2:	4798      	blx	r3
   80ab4:	e796      	b.n	809e4 <xQueueGenericReceive+0x34>
   80ab6:	4620      	mov	r0, r4
   80ab8:	4b11      	ldr	r3, [pc, #68]	; (80b00 <xQueueGenericReceive+0x150>)
   80aba:	4798      	blx	r3
   80abc:	4b11      	ldr	r3, [pc, #68]	; (80b04 <xQueueGenericReceive+0x154>)
   80abe:	4798      	blx	r3
   80ac0:	e790      	b.n	809e4 <xQueueGenericReceive+0x34>
   80ac2:	4620      	mov	r0, r4
   80ac4:	4b0e      	ldr	r3, [pc, #56]	; (80b00 <xQueueGenericReceive+0x150>)
   80ac6:	4798      	blx	r3
   80ac8:	4b0e      	ldr	r3, [pc, #56]	; (80b04 <xQueueGenericReceive+0x154>)
   80aca:	4798      	blx	r3
   80acc:	2000      	movs	r0, #0
   80ace:	b005      	add	sp, #20
   80ad0:	e8bd 8ff0 	ldmia.w	sp!, {r4, r5, r6, r7, r8, r9, sl, fp, pc}
   80ad4:	000803b5 	.word	0x000803b5
   80ad8:	000803c5 	.word	0x000803c5
   80adc:	000803e5 	.word	0x000803e5
   80ae0:	00080675 	.word	0x00080675
   80ae4:	000813c1 	.word	0x000813c1
   80ae8:	00081285 	.word	0x00081285
   80aec:	000803a5 	.word	0x000803a5
   80af0:	00080e1d 	.word	0x00080e1d
   80af4:	00081331 	.word	0x00081331
   80af8:	000813ed 	.word	0x000813ed
   80afc:	000811e1 	.word	0x000811e1
   80b00:	0008069d 	.word	0x0008069d
   80b04:	00080f6d 	.word	0x00080f6d
   80b08:	00081309 	.word	0x00081309

00080b0c <vQueueWaitForMessageRestricted>:
   80b0c:	b538      	push	{r3, r4, r5, lr}
   80b0e:	4604      	mov	r4, r0
   80b10:	460d      	mov	r5, r1
   80b12:	4b0d      	ldr	r3, [pc, #52]	; (80b48 <vQueueWaitForMessageRestricted+0x3c>)
   80b14:	4798      	blx	r3
   80b16:	6c63      	ldr	r3, [r4, #68]	; 0x44
   80b18:	f1b3 3fff 	cmp.w	r3, #4294967295
   80b1c:	bf04      	itt	eq
   80b1e:	2300      	moveq	r3, #0
   80b20:	6463      	streq	r3, [r4, #68]	; 0x44
   80b22:	6ca3      	ldr	r3, [r4, #72]	; 0x48
   80b24:	f1b3 3fff 	cmp.w	r3, #4294967295
   80b28:	bf04      	itt	eq
   80b2a:	2300      	moveq	r3, #0
   80b2c:	64a3      	streq	r3, [r4, #72]	; 0x48
   80b2e:	4b07      	ldr	r3, [pc, #28]	; (80b4c <vQueueWaitForMessageRestricted+0x40>)
   80b30:	4798      	blx	r3
   80b32:	6ba3      	ldr	r3, [r4, #56]	; 0x38
   80b34:	b923      	cbnz	r3, 80b40 <vQueueWaitForMessageRestricted+0x34>
   80b36:	f104 0024 	add.w	r0, r4, #36	; 0x24
   80b3a:	4629      	mov	r1, r5
   80b3c:	4b04      	ldr	r3, [pc, #16]	; (80b50 <vQueueWaitForMessageRestricted+0x44>)
   80b3e:	4798      	blx	r3
   80b40:	4620      	mov	r0, r4
   80b42:	4b04      	ldr	r3, [pc, #16]	; (80b54 <vQueueWaitForMessageRestricted+0x48>)
   80b44:	4798      	blx	r3
   80b46:	bd38      	pop	{r3, r4, r5, pc}
   80b48:	000803c5 	.word	0x000803c5
   80b4c:	000803e5 	.word	0x000803e5
   80b50:	00081241 	.word	0x00081241
   80b54:	0008069d 	.word	0x0008069d

00080b58 <prvAddCurrentTaskToDelayedList>:
   80b58:	b510      	push	{r4, lr}
   80b5a:	4604      	mov	r4, r0
   80b5c:	4b0e      	ldr	r3, [pc, #56]	; (80b98 <prvAddCurrentTaskToDelayedList+0x40>)
   80b5e:	681b      	ldr	r3, [r3, #0]
   80b60:	6058      	str	r0, [r3, #4]
   80b62:	4b0e      	ldr	r3, [pc, #56]	; (80b9c <prvAddCurrentTaskToDelayedList+0x44>)
   80b64:	681b      	ldr	r3, [r3, #0]
   80b66:	4298      	cmp	r0, r3
   80b68:	d207      	bcs.n	80b7a <prvAddCurrentTaskToDelayedList+0x22>
   80b6a:	4b0d      	ldr	r3, [pc, #52]	; (80ba0 <prvAddCurrentTaskToDelayedList+0x48>)
   80b6c:	6818      	ldr	r0, [r3, #0]
   80b6e:	4b0a      	ldr	r3, [pc, #40]	; (80b98 <prvAddCurrentTaskToDelayedList+0x40>)
   80b70:	6819      	ldr	r1, [r3, #0]
   80b72:	3104      	adds	r1, #4
   80b74:	4b0b      	ldr	r3, [pc, #44]	; (80ba4 <prvAddCurrentTaskToDelayedList+0x4c>)
   80b76:	4798      	blx	r3
   80b78:	bd10      	pop	{r4, pc}
   80b7a:	4b0b      	ldr	r3, [pc, #44]	; (80ba8 <prvAddCurrentTaskToDelayedList+0x50>)
   80b7c:	6818      	ldr	r0, [r3, #0]
   80b7e:	4b06      	ldr	r3, [pc, #24]	; (80b98 <prvAddCurrentTaskToDelayedList+0x40>)
   80b80:	6819      	ldr	r1, [r3, #0]
   80b82:	3104      	adds	r1, #4
   80b84:	4b07      	ldr	r3, [pc, #28]	; (80ba4 <prvAddCurrentTaskToDelayedList+0x4c>)
   80b86:	4798      	blx	r3
   80b88:	4b08      	ldr	r3, [pc, #32]	; (80bac <prvAddCurrentTaskToDelayedList+0x54>)
   80b8a:	681b      	ldr	r3, [r3, #0]
   80b8c:	429c      	cmp	r4, r3
   80b8e:	bf3c      	itt	cc
   80b90:	4b06      	ldrcc	r3, [pc, #24]	; (80bac <prvAddCurrentTaskToDelayedList+0x54>)
   80b92:	601c      	strcc	r4, [r3, #0]
   80b94:	bd10      	pop	{r4, pc}
   80b96:	bf00      	nop
   80b98:	2007a660 	.word	0x2007a660
   80b9c:	2007a67c 	.word	0x2007a67c
   80ba0:	2007a680 	.word	0x2007a680
   80ba4:	000802f1 	.word	0x000802f1
   80ba8:	2007a5ac 	.word	0x2007a5ac
   80bac:	20070134 	.word	0x20070134

00080bb0 <xTaskGenericCreate>:
   80bb0:	e92d 4ff0 	stmdb	sp!, {r4, r5, r6, r7, r8, r9, sl, fp, lr}
   80bb4:	b083      	sub	sp, #12
   80bb6:	9f0c      	ldr	r7, [sp, #48]	; 0x30
   80bb8:	f8dd 8034 	ldr.w	r8, [sp, #52]	; 0x34
   80bbc:	9e0e      	ldr	r6, [sp, #56]	; 0x38
   80bbe:	9001      	str	r0, [sp, #4]
   80bc0:	b918      	cbnz	r0, 80bca <xTaskGenericCreate+0x1a>
   80bc2:	4b62      	ldr	r3, [pc, #392]	; (80d4c <xTaskGenericCreate+0x19c>)
   80bc4:	4798      	blx	r3
   80bc6:	bf00      	nop
   80bc8:	e7fd      	b.n	80bc6 <xTaskGenericCreate+0x16>
   80bca:	4689      	mov	r9, r1
   80bcc:	4615      	mov	r5, r2
   80bce:	469b      	mov	fp, r3
   80bd0:	2f04      	cmp	r7, #4
   80bd2:	d903      	bls.n	80bdc <xTaskGenericCreate+0x2c>
   80bd4:	4b5d      	ldr	r3, [pc, #372]	; (80d4c <xTaskGenericCreate+0x19c>)
   80bd6:	4798      	blx	r3
   80bd8:	bf00      	nop
   80bda:	e7fd      	b.n	80bd8 <xTaskGenericCreate+0x28>
   80bdc:	204c      	movs	r0, #76	; 0x4c
   80bde:	4b5c      	ldr	r3, [pc, #368]	; (80d50 <xTaskGenericCreate+0x1a0>)
   80be0:	4798      	blx	r3
   80be2:	4604      	mov	r4, r0
   80be4:	2800      	cmp	r0, #0
   80be6:	f000 80ab 	beq.w	80d40 <xTaskGenericCreate+0x190>
   80bea:	2e00      	cmp	r6, #0
   80bec:	f040 80a5 	bne.w	80d3a <xTaskGenericCreate+0x18a>
   80bf0:	00a8      	lsls	r0, r5, #2
   80bf2:	4b57      	ldr	r3, [pc, #348]	; (80d50 <xTaskGenericCreate+0x1a0>)
   80bf4:	4798      	blx	r3
   80bf6:	6320      	str	r0, [r4, #48]	; 0x30
   80bf8:	b918      	cbnz	r0, 80c02 <xTaskGenericCreate+0x52>
   80bfa:	4620      	mov	r0, r4
   80bfc:	4b55      	ldr	r3, [pc, #340]	; (80d54 <xTaskGenericCreate+0x1a4>)
   80bfe:	4798      	blx	r3
   80c00:	e09e      	b.n	80d40 <xTaskGenericCreate+0x190>
   80c02:	21a5      	movs	r1, #165	; 0xa5
   80c04:	00aa      	lsls	r2, r5, #2
   80c06:	4b54      	ldr	r3, [pc, #336]	; (80d58 <xTaskGenericCreate+0x1a8>)
   80c08:	4798      	blx	r3
   80c0a:	f105 4580 	add.w	r5, r5, #1073741824	; 0x40000000
   80c0e:	3d01      	subs	r5, #1
   80c10:	6b23      	ldr	r3, [r4, #48]	; 0x30
   80c12:	eb03 0385 	add.w	r3, r3, r5, lsl #2
   80c16:	f023 0507 	bic.w	r5, r3, #7
   80c1a:	f104 0034 	add.w	r0, r4, #52	; 0x34
   80c1e:	4649      	mov	r1, r9
   80c20:	220a      	movs	r2, #10
   80c22:	4b4e      	ldr	r3, [pc, #312]	; (80d5c <xTaskGenericCreate+0x1ac>)
   80c24:	4798      	blx	r3
   80c26:	2300      	movs	r3, #0
   80c28:	f884 303d 	strb.w	r3, [r4, #61]	; 0x3d
   80c2c:	463e      	mov	r6, r7
   80c2e:	2f04      	cmp	r7, #4
   80c30:	bf28      	it	cs
   80c32:	2604      	movcs	r6, #4
   80c34:	62e6      	str	r6, [r4, #44]	; 0x2c
   80c36:	64a6      	str	r6, [r4, #72]	; 0x48
   80c38:	f104 0904 	add.w	r9, r4, #4
   80c3c:	4648      	mov	r0, r9
   80c3e:	f8df a16c 	ldr.w	sl, [pc, #364]	; 80dac <xTaskGenericCreate+0x1fc>
   80c42:	47d0      	blx	sl
   80c44:	f104 0018 	add.w	r0, r4, #24
   80c48:	47d0      	blx	sl
   80c4a:	6124      	str	r4, [r4, #16]
   80c4c:	f1c6 0605 	rsb	r6, r6, #5
   80c50:	61a6      	str	r6, [r4, #24]
   80c52:	6264      	str	r4, [r4, #36]	; 0x24
   80c54:	4628      	mov	r0, r5
   80c56:	9901      	ldr	r1, [sp, #4]
   80c58:	465a      	mov	r2, fp
   80c5a:	4b41      	ldr	r3, [pc, #260]	; (80d60 <xTaskGenericCreate+0x1b0>)
   80c5c:	4798      	blx	r3
   80c5e:	6020      	str	r0, [r4, #0]
   80c60:	f010 0f07 	tst.w	r0, #7
   80c64:	d003      	beq.n	80c6e <xTaskGenericCreate+0xbe>
   80c66:	4b39      	ldr	r3, [pc, #228]	; (80d4c <xTaskGenericCreate+0x19c>)
   80c68:	4798      	blx	r3
   80c6a:	bf00      	nop
   80c6c:	e7fd      	b.n	80c6a <xTaskGenericCreate+0xba>
   80c6e:	f1b8 0f00 	cmp.w	r8, #0
   80c72:	d001      	beq.n	80c78 <xTaskGenericCreate+0xc8>
   80c74:	f8c8 4000 	str.w	r4, [r8]
   80c78:	4b3a      	ldr	r3, [pc, #232]	; (80d64 <xTaskGenericCreate+0x1b4>)
   80c7a:	4798      	blx	r3
   80c7c:	4a3a      	ldr	r2, [pc, #232]	; (80d68 <xTaskGenericCreate+0x1b8>)
   80c7e:	6813      	ldr	r3, [r2, #0]
   80c80:	3301      	adds	r3, #1
   80c82:	6013      	str	r3, [r2, #0]
   80c84:	4b39      	ldr	r3, [pc, #228]	; (80d6c <xTaskGenericCreate+0x1bc>)
   80c86:	681b      	ldr	r3, [r3, #0]
   80c88:	bb0b      	cbnz	r3, 80cce <xTaskGenericCreate+0x11e>
   80c8a:	4b38      	ldr	r3, [pc, #224]	; (80d6c <xTaskGenericCreate+0x1bc>)
   80c8c:	601c      	str	r4, [r3, #0]
   80c8e:	6813      	ldr	r3, [r2, #0]
   80c90:	2b01      	cmp	r3, #1
   80c92:	d126      	bne.n	80ce2 <xTaskGenericCreate+0x132>
   80c94:	4d36      	ldr	r5, [pc, #216]	; (80d70 <xTaskGenericCreate+0x1c0>)
   80c96:	f105 0864 	add.w	r8, r5, #100	; 0x64
   80c9a:	4e36      	ldr	r6, [pc, #216]	; (80d74 <xTaskGenericCreate+0x1c4>)
   80c9c:	4628      	mov	r0, r5
   80c9e:	47b0      	blx	r6
   80ca0:	3514      	adds	r5, #20
   80ca2:	4545      	cmp	r5, r8
   80ca4:	d1fa      	bne.n	80c9c <xTaskGenericCreate+0xec>
   80ca6:	f8df 8108 	ldr.w	r8, [pc, #264]	; 80db0 <xTaskGenericCreate+0x200>
   80caa:	4640      	mov	r0, r8
   80cac:	4d31      	ldr	r5, [pc, #196]	; (80d74 <xTaskGenericCreate+0x1c4>)
   80cae:	47a8      	blx	r5
   80cb0:	4e31      	ldr	r6, [pc, #196]	; (80d78 <xTaskGenericCreate+0x1c8>)
   80cb2:	4630      	mov	r0, r6
   80cb4:	47a8      	blx	r5
   80cb6:	4831      	ldr	r0, [pc, #196]	; (80d7c <xTaskGenericCreate+0x1cc>)
   80cb8:	47a8      	blx	r5
   80cba:	4831      	ldr	r0, [pc, #196]	; (80d80 <xTaskGenericCreate+0x1d0>)
   80cbc:	47a8      	blx	r5
   80cbe:	4831      	ldr	r0, [pc, #196]	; (80d84 <xTaskGenericCreate+0x1d4>)
   80cc0:	47a8      	blx	r5
   80cc2:	4b31      	ldr	r3, [pc, #196]	; (80d88 <xTaskGenericCreate+0x1d8>)
   80cc4:	f8c3 8000 	str.w	r8, [r3]
   80cc8:	4b30      	ldr	r3, [pc, #192]	; (80d8c <xTaskGenericCreate+0x1dc>)
   80cca:	601e      	str	r6, [r3, #0]
   80ccc:	e009      	b.n	80ce2 <xTaskGenericCreate+0x132>
   80cce:	4b30      	ldr	r3, [pc, #192]	; (80d90 <xTaskGenericCreate+0x1e0>)
   80cd0:	681b      	ldr	r3, [r3, #0]
   80cd2:	b933      	cbnz	r3, 80ce2 <xTaskGenericCreate+0x132>
   80cd4:	4b25      	ldr	r3, [pc, #148]	; (80d6c <xTaskGenericCreate+0x1bc>)
   80cd6:	681b      	ldr	r3, [r3, #0]
   80cd8:	6adb      	ldr	r3, [r3, #44]	; 0x2c
   80cda:	429f      	cmp	r7, r3
   80cdc:	bf24      	itt	cs
   80cde:	4b23      	ldrcs	r3, [pc, #140]	; (80d6c <xTaskGenericCreate+0x1bc>)
   80ce0:	601c      	strcs	r4, [r3, #0]
   80ce2:	6ae0      	ldr	r0, [r4, #44]	; 0x2c
   80ce4:	4b2b      	ldr	r3, [pc, #172]	; (80d94 <xTaskGenericCreate+0x1e4>)
   80ce6:	681b      	ldr	r3, [r3, #0]
   80ce8:	4298      	cmp	r0, r3
   80cea:	bf84      	itt	hi
   80cec:	4b29      	ldrhi	r3, [pc, #164]	; (80d94 <xTaskGenericCreate+0x1e4>)
   80cee:	6018      	strhi	r0, [r3, #0]
   80cf0:	4a29      	ldr	r2, [pc, #164]	; (80d98 <xTaskGenericCreate+0x1e8>)
   80cf2:	6813      	ldr	r3, [r2, #0]
   80cf4:	6423      	str	r3, [r4, #64]	; 0x40
   80cf6:	3301      	adds	r3, #1
   80cf8:	6013      	str	r3, [r2, #0]
   80cfa:	4b28      	ldr	r3, [pc, #160]	; (80d9c <xTaskGenericCreate+0x1ec>)
   80cfc:	681b      	ldr	r3, [r3, #0]
   80cfe:	4298      	cmp	r0, r3
   80d00:	bf84      	itt	hi
   80d02:	4b26      	ldrhi	r3, [pc, #152]	; (80d9c <xTaskGenericCreate+0x1ec>)
   80d04:	6018      	strhi	r0, [r3, #0]
   80d06:	eb00 0080 	add.w	r0, r0, r0, lsl #2
   80d0a:	4b19      	ldr	r3, [pc, #100]	; (80d70 <xTaskGenericCreate+0x1c0>)
   80d0c:	eb03 0080 	add.w	r0, r3, r0, lsl #2
   80d10:	4649      	mov	r1, r9
   80d12:	4b23      	ldr	r3, [pc, #140]	; (80da0 <xTaskGenericCreate+0x1f0>)
   80d14:	4798      	blx	r3
   80d16:	4b23      	ldr	r3, [pc, #140]	; (80da4 <xTaskGenericCreate+0x1f4>)
   80d18:	4798      	blx	r3
   80d1a:	4b1d      	ldr	r3, [pc, #116]	; (80d90 <xTaskGenericCreate+0x1e0>)
   80d1c:	681b      	ldr	r3, [r3, #0]
   80d1e:	b143      	cbz	r3, 80d32 <xTaskGenericCreate+0x182>
   80d20:	4b12      	ldr	r3, [pc, #72]	; (80d6c <xTaskGenericCreate+0x1bc>)
   80d22:	681b      	ldr	r3, [r3, #0]
   80d24:	6adb      	ldr	r3, [r3, #44]	; 0x2c
   80d26:	429f      	cmp	r7, r3
   80d28:	d905      	bls.n	80d36 <xTaskGenericCreate+0x186>
   80d2a:	4b1f      	ldr	r3, [pc, #124]	; (80da8 <xTaskGenericCreate+0x1f8>)
   80d2c:	4798      	blx	r3
   80d2e:	2001      	movs	r0, #1
   80d30:	e008      	b.n	80d44 <xTaskGenericCreate+0x194>
   80d32:	2001      	movs	r0, #1
   80d34:	e006      	b.n	80d44 <xTaskGenericCreate+0x194>
   80d36:	2001      	movs	r0, #1
   80d38:	e004      	b.n	80d44 <xTaskGenericCreate+0x194>
   80d3a:	6306      	str	r6, [r0, #48]	; 0x30
   80d3c:	4630      	mov	r0, r6
   80d3e:	e760      	b.n	80c02 <xTaskGenericCreate+0x52>
   80d40:	f04f 30ff 	mov.w	r0, #4294967295
   80d44:	b003      	add	sp, #12
   80d46:	e8bd 8ff0 	ldmia.w	sp!, {r4, r5, r6, r7, r8, r9, sl, fp, pc}
   80d4a:	bf00      	nop
   80d4c:	000803b5 	.word	0x000803b5
   80d50:	00080511 	.word	0x00080511
   80d54:	000805d9 	.word	0x000805d9
   80d58:	000821a5 	.word	0x000821a5
   80d5c:	00082241 	.word	0x00082241
   80d60:	00080369 	.word	0x00080369
   80d64:	000803c5 	.word	0x000803c5
   80d68:	2007a688 	.word	0x2007a688
   80d6c:	2007a660 	.word	0x2007a660
   80d70:	2007a5e4 	.word	0x2007a5e4
   80d74:	000802b5 	.word	0x000802b5
   80d78:	2007a5cc 	.word	0x2007a5cc
   80d7c:	2007a664 	.word	0x2007a664
   80d80:	2007a648 	.word	0x2007a648
   80d84:	2007a598 	.word	0x2007a598
   80d88:	2007a5ac 	.word	0x2007a5ac
   80d8c:	2007a680 	.word	0x2007a680
   80d90:	2007a5b0 	.word	0x2007a5b0
   80d94:	2007a690 	.word	0x2007a690
   80d98:	2007a684 	.word	0x2007a684
   80d9c:	2007a5e0 	.word	0x2007a5e0
   80da0:	000802d5 	.word	0x000802d5
   80da4:	000803e5 	.word	0x000803e5
   80da8:	000803a5 	.word	0x000803a5
   80dac:	000802cd 	.word	0x000802cd
   80db0:	2007a5b8 	.word	0x2007a5b8

00080db4 <vTaskStartScheduler>:
   80db4:	b510      	push	{r4, lr}
   80db6:	b084      	sub	sp, #16
   80db8:	2300      	movs	r3, #0
   80dba:	9300      	str	r3, [sp, #0]
   80dbc:	9301      	str	r3, [sp, #4]
   80dbe:	9302      	str	r3, [sp, #8]
   80dc0:	9303      	str	r3, [sp, #12]
   80dc2:	480e      	ldr	r0, [pc, #56]	; (80dfc <vTaskStartScheduler+0x48>)
   80dc4:	490e      	ldr	r1, [pc, #56]	; (80e00 <vTaskStartScheduler+0x4c>)
   80dc6:	2282      	movs	r2, #130	; 0x82
   80dc8:	4c0e      	ldr	r4, [pc, #56]	; (80e04 <vTaskStartScheduler+0x50>)
   80dca:	47a0      	blx	r4
   80dcc:	2801      	cmp	r0, #1
   80dce:	d10e      	bne.n	80dee <vTaskStartScheduler+0x3a>
   80dd0:	4b0d      	ldr	r3, [pc, #52]	; (80e08 <vTaskStartScheduler+0x54>)
   80dd2:	4798      	blx	r3
   80dd4:	2801      	cmp	r0, #1
   80dd6:	d10a      	bne.n	80dee <vTaskStartScheduler+0x3a>
   80dd8:	4b0c      	ldr	r3, [pc, #48]	; (80e0c <vTaskStartScheduler+0x58>)
   80dda:	4798      	blx	r3
   80ddc:	2201      	movs	r2, #1
   80dde:	4b0c      	ldr	r3, [pc, #48]	; (80e10 <vTaskStartScheduler+0x5c>)
   80de0:	601a      	str	r2, [r3, #0]
   80de2:	2200      	movs	r2, #0
   80de4:	4b0b      	ldr	r3, [pc, #44]	; (80e14 <vTaskStartScheduler+0x60>)
   80de6:	601a      	str	r2, [r3, #0]
   80de8:	4b0b      	ldr	r3, [pc, #44]	; (80e18 <vTaskStartScheduler+0x64>)
   80dea:	4798      	blx	r3
   80dec:	e004      	b.n	80df8 <vTaskStartScheduler+0x44>
   80dee:	b918      	cbnz	r0, 80df8 <vTaskStartScheduler+0x44>
   80df0:	4b06      	ldr	r3, [pc, #24]	; (80e0c <vTaskStartScheduler+0x58>)
   80df2:	4798      	blx	r3
   80df4:	bf00      	nop
   80df6:	e7fd      	b.n	80df4 <vTaskStartScheduler+0x40>
   80df8:	b004      	add	sp, #16
   80dfa:	bd10      	pop	{r4, pc}
   80dfc:	000810b9 	.word	0x000810b9
   80e00:	000823ac 	.word	0x000823ac
   80e04:	00080bb1 	.word	0x00080bb1
   80e08:	00081565 	.word	0x00081565
   80e0c:	000803b5 	.word	0x000803b5
   80e10:	2007a5b0 	.word	0x2007a5b0
   80e14:	2007a67c 	.word	0x2007a67c
   80e18:	00080481 	.word	0x00080481

00080e1c <vTaskSuspendAll>:
   80e1c:	4a02      	ldr	r2, [pc, #8]	; (80e28 <vTaskSuspendAll+0xc>)
   80e1e:	6813      	ldr	r3, [r2, #0]
   80e20:	3301      	adds	r3, #1
   80e22:	6013      	str	r3, [r2, #0]
   80e24:	4770      	bx	lr
   80e26:	bf00      	nop
   80e28:	2007a678 	.word	0x2007a678

00080e2c <xTaskGetTickCount>:
   80e2c:	b510      	push	{r4, lr}
   80e2e:	4b04      	ldr	r3, [pc, #16]	; (80e40 <xTaskGetTickCount+0x14>)
   80e30:	4798      	blx	r3
   80e32:	4b04      	ldr	r3, [pc, #16]	; (80e44 <xTaskGetTickCount+0x18>)
   80e34:	681c      	ldr	r4, [r3, #0]
   80e36:	4b04      	ldr	r3, [pc, #16]	; (80e48 <xTaskGetTickCount+0x1c>)
   80e38:	4798      	blx	r3
   80e3a:	4620      	mov	r0, r4
   80e3c:	bd10      	pop	{r4, pc}
   80e3e:	bf00      	nop
   80e40:	000803c5 	.word	0x000803c5
   80e44:	2007a67c 	.word	0x2007a67c
   80e48:	000803e5 	.word	0x000803e5

00080e4c <vTaskIncrementTick>:
   80e4c:	e92d 41f0 	stmdb	sp!, {r4, r5, r6, r7, r8, lr}
   80e50:	4b3a      	ldr	r3, [pc, #232]	; (80f3c <vTaskIncrementTick+0xf0>)
   80e52:	681b      	ldr	r3, [r3, #0]
   80e54:	2b00      	cmp	r3, #0
   80e56:	d16b      	bne.n	80f30 <vTaskIncrementTick+0xe4>
   80e58:	4b39      	ldr	r3, [pc, #228]	; (80f40 <vTaskIncrementTick+0xf4>)
   80e5a:	681a      	ldr	r2, [r3, #0]
   80e5c:	3201      	adds	r2, #1
   80e5e:	601a      	str	r2, [r3, #0]
   80e60:	681b      	ldr	r3, [r3, #0]
   80e62:	bb03      	cbnz	r3, 80ea6 <vTaskIncrementTick+0x5a>
   80e64:	4b37      	ldr	r3, [pc, #220]	; (80f44 <vTaskIncrementTick+0xf8>)
   80e66:	681b      	ldr	r3, [r3, #0]
   80e68:	681b      	ldr	r3, [r3, #0]
   80e6a:	b11b      	cbz	r3, 80e74 <vTaskIncrementTick+0x28>
   80e6c:	4b36      	ldr	r3, [pc, #216]	; (80f48 <vTaskIncrementTick+0xfc>)
   80e6e:	4798      	blx	r3
   80e70:	bf00      	nop
   80e72:	e7fd      	b.n	80e70 <vTaskIncrementTick+0x24>
   80e74:	4b33      	ldr	r3, [pc, #204]	; (80f44 <vTaskIncrementTick+0xf8>)
   80e76:	6819      	ldr	r1, [r3, #0]
   80e78:	4a34      	ldr	r2, [pc, #208]	; (80f4c <vTaskIncrementTick+0x100>)
   80e7a:	6810      	ldr	r0, [r2, #0]
   80e7c:	6018      	str	r0, [r3, #0]
   80e7e:	6011      	str	r1, [r2, #0]
   80e80:	4933      	ldr	r1, [pc, #204]	; (80f50 <vTaskIncrementTick+0x104>)
   80e82:	680a      	ldr	r2, [r1, #0]
   80e84:	3201      	adds	r2, #1
   80e86:	600a      	str	r2, [r1, #0]
   80e88:	681b      	ldr	r3, [r3, #0]
   80e8a:	681b      	ldr	r3, [r3, #0]
   80e8c:	b923      	cbnz	r3, 80e98 <vTaskIncrementTick+0x4c>
   80e8e:	f04f 32ff 	mov.w	r2, #4294967295
   80e92:	4b30      	ldr	r3, [pc, #192]	; (80f54 <vTaskIncrementTick+0x108>)
   80e94:	601a      	str	r2, [r3, #0]
   80e96:	e006      	b.n	80ea6 <vTaskIncrementTick+0x5a>
   80e98:	4b2a      	ldr	r3, [pc, #168]	; (80f44 <vTaskIncrementTick+0xf8>)
   80e9a:	681b      	ldr	r3, [r3, #0]
   80e9c:	68db      	ldr	r3, [r3, #12]
   80e9e:	68db      	ldr	r3, [r3, #12]
   80ea0:	685a      	ldr	r2, [r3, #4]
   80ea2:	4b2c      	ldr	r3, [pc, #176]	; (80f54 <vTaskIncrementTick+0x108>)
   80ea4:	601a      	str	r2, [r3, #0]
   80ea6:	4b26      	ldr	r3, [pc, #152]	; (80f40 <vTaskIncrementTick+0xf4>)
   80ea8:	681a      	ldr	r2, [r3, #0]
   80eaa:	4b2a      	ldr	r3, [pc, #168]	; (80f54 <vTaskIncrementTick+0x108>)
   80eac:	681b      	ldr	r3, [r3, #0]
   80eae:	429a      	cmp	r2, r3
   80eb0:	d342      	bcc.n	80f38 <vTaskIncrementTick+0xec>
   80eb2:	4b24      	ldr	r3, [pc, #144]	; (80f44 <vTaskIncrementTick+0xf8>)
   80eb4:	681b      	ldr	r3, [r3, #0]
   80eb6:	681b      	ldr	r3, [r3, #0]
   80eb8:	b16b      	cbz	r3, 80ed6 <vTaskIncrementTick+0x8a>
   80eba:	4b22      	ldr	r3, [pc, #136]	; (80f44 <vTaskIncrementTick+0xf8>)
   80ebc:	681b      	ldr	r3, [r3, #0]
   80ebe:	68db      	ldr	r3, [r3, #12]
   80ec0:	68dc      	ldr	r4, [r3, #12]
   80ec2:	6863      	ldr	r3, [r4, #4]
   80ec4:	4a1e      	ldr	r2, [pc, #120]	; (80f40 <vTaskIncrementTick+0xf4>)
   80ec6:	6812      	ldr	r2, [r2, #0]
   80ec8:	4293      	cmp	r3, r2
   80eca:	d813      	bhi.n	80ef4 <vTaskIncrementTick+0xa8>
   80ecc:	4e22      	ldr	r6, [pc, #136]	; (80f58 <vTaskIncrementTick+0x10c>)
   80ece:	4f23      	ldr	r7, [pc, #140]	; (80f5c <vTaskIncrementTick+0x110>)
   80ed0:	f8df 8094 	ldr.w	r8, [pc, #148]	; 80f68 <vTaskIncrementTick+0x11c>
   80ed4:	e012      	b.n	80efc <vTaskIncrementTick+0xb0>
   80ed6:	f04f 32ff 	mov.w	r2, #4294967295
   80eda:	4b1e      	ldr	r3, [pc, #120]	; (80f54 <vTaskIncrementTick+0x108>)
   80edc:	601a      	str	r2, [r3, #0]
   80ede:	e8bd 81f0 	ldmia.w	sp!, {r4, r5, r6, r7, r8, pc}
   80ee2:	4b18      	ldr	r3, [pc, #96]	; (80f44 <vTaskIncrementTick+0xf8>)
   80ee4:	681b      	ldr	r3, [r3, #0]
   80ee6:	68db      	ldr	r3, [r3, #12]
   80ee8:	68dc      	ldr	r4, [r3, #12]
   80eea:	6863      	ldr	r3, [r4, #4]
   80eec:	4a14      	ldr	r2, [pc, #80]	; (80f40 <vTaskIncrementTick+0xf4>)
   80eee:	6812      	ldr	r2, [r2, #0]
   80ef0:	4293      	cmp	r3, r2
   80ef2:	d903      	bls.n	80efc <vTaskIncrementTick+0xb0>
   80ef4:	4a17      	ldr	r2, [pc, #92]	; (80f54 <vTaskIncrementTick+0x108>)
   80ef6:	6013      	str	r3, [r2, #0]
   80ef8:	e8bd 81f0 	ldmia.w	sp!, {r4, r5, r6, r7, r8, pc}
   80efc:	1d25      	adds	r5, r4, #4
   80efe:	4628      	mov	r0, r5
   80f00:	47b0      	blx	r6
   80f02:	6aa3      	ldr	r3, [r4, #40]	; 0x28
   80f04:	b113      	cbz	r3, 80f0c <vTaskIncrementTick+0xc0>
   80f06:	f104 0018 	add.w	r0, r4, #24
   80f0a:	47b0      	blx	r6
   80f0c:	6ae0      	ldr	r0, [r4, #44]	; 0x2c
   80f0e:	683b      	ldr	r3, [r7, #0]
   80f10:	4298      	cmp	r0, r3
   80f12:	bf88      	it	hi
   80f14:	6038      	strhi	r0, [r7, #0]
   80f16:	eb00 0080 	add.w	r0, r0, r0, lsl #2
   80f1a:	eb08 0080 	add.w	r0, r8, r0, lsl #2
   80f1e:	4629      	mov	r1, r5
   80f20:	4b0f      	ldr	r3, [pc, #60]	; (80f60 <vTaskIncrementTick+0x114>)
   80f22:	4798      	blx	r3
   80f24:	4b07      	ldr	r3, [pc, #28]	; (80f44 <vTaskIncrementTick+0xf8>)
   80f26:	681b      	ldr	r3, [r3, #0]
   80f28:	681b      	ldr	r3, [r3, #0]
   80f2a:	2b00      	cmp	r3, #0
   80f2c:	d1d9      	bne.n	80ee2 <vTaskIncrementTick+0x96>
   80f2e:	e7d2      	b.n	80ed6 <vTaskIncrementTick+0x8a>
   80f30:	4a0c      	ldr	r2, [pc, #48]	; (80f64 <vTaskIncrementTick+0x118>)
   80f32:	6813      	ldr	r3, [r2, #0]
   80f34:	3301      	adds	r3, #1
   80f36:	6013      	str	r3, [r2, #0]
   80f38:	e8bd 81f0 	ldmia.w	sp!, {r4, r5, r6, r7, r8, pc}
   80f3c:	2007a678 	.word	0x2007a678
   80f40:	2007a67c 	.word	0x2007a67c
   80f44:	2007a5ac 	.word	0x2007a5ac
   80f48:	000803b5 	.word	0x000803b5
   80f4c:	2007a680 	.word	0x2007a680
   80f50:	2007a65c 	.word	0x2007a65c
   80f54:	20070134 	.word	0x20070134
   80f58:	0008032d 	.word	0x0008032d
   80f5c:	2007a5e0 	.word	0x2007a5e0
   80f60:	000802d5 	.word	0x000802d5
   80f64:	2007a594 	.word	0x2007a594
   80f68:	2007a5e4 	.word	0x2007a5e4

00080f6c <xTaskResumeAll>:
   80f6c:	e92d 43f8 	stmdb	sp!, {r3, r4, r5, r6, r7, r8, r9, lr}
   80f70:	4b30      	ldr	r3, [pc, #192]	; (81034 <xTaskResumeAll+0xc8>)
   80f72:	681b      	ldr	r3, [r3, #0]
   80f74:	b91b      	cbnz	r3, 80f7e <xTaskResumeAll+0x12>
   80f76:	4b30      	ldr	r3, [pc, #192]	; (81038 <xTaskResumeAll+0xcc>)
   80f78:	4798      	blx	r3
   80f7a:	bf00      	nop
   80f7c:	e7fd      	b.n	80f7a <xTaskResumeAll+0xe>
   80f7e:	4b2f      	ldr	r3, [pc, #188]	; (8103c <xTaskResumeAll+0xd0>)
   80f80:	4798      	blx	r3
   80f82:	4b2c      	ldr	r3, [pc, #176]	; (81034 <xTaskResumeAll+0xc8>)
   80f84:	681a      	ldr	r2, [r3, #0]
   80f86:	3a01      	subs	r2, #1
   80f88:	601a      	str	r2, [r3, #0]
   80f8a:	681b      	ldr	r3, [r3, #0]
   80f8c:	2b00      	cmp	r3, #0
   80f8e:	d149      	bne.n	81024 <xTaskResumeAll+0xb8>
   80f90:	4b2b      	ldr	r3, [pc, #172]	; (81040 <xTaskResumeAll+0xd4>)
   80f92:	681b      	ldr	r3, [r3, #0]
   80f94:	bb03      	cbnz	r3, 80fd8 <xTaskResumeAll+0x6c>
   80f96:	2400      	movs	r4, #0
   80f98:	e047      	b.n	8102a <xTaskResumeAll+0xbe>
   80f9a:	f8d8 300c 	ldr.w	r3, [r8, #12]
   80f9e:	68dc      	ldr	r4, [r3, #12]
   80fa0:	f104 0018 	add.w	r0, r4, #24
   80fa4:	47b8      	blx	r7
   80fa6:	f104 0904 	add.w	r9, r4, #4
   80faa:	4648      	mov	r0, r9
   80fac:	47b8      	blx	r7
   80fae:	6ae0      	ldr	r0, [r4, #44]	; 0x2c
   80fb0:	6833      	ldr	r3, [r6, #0]
   80fb2:	4298      	cmp	r0, r3
   80fb4:	bf88      	it	hi
   80fb6:	6030      	strhi	r0, [r6, #0]
   80fb8:	eb00 0080 	add.w	r0, r0, r0, lsl #2
   80fbc:	4b21      	ldr	r3, [pc, #132]	; (81044 <xTaskResumeAll+0xd8>)
   80fbe:	eb03 0080 	add.w	r0, r3, r0, lsl #2
   80fc2:	4649      	mov	r1, r9
   80fc4:	4b20      	ldr	r3, [pc, #128]	; (81048 <xTaskResumeAll+0xdc>)
   80fc6:	4798      	blx	r3
   80fc8:	4b20      	ldr	r3, [pc, #128]	; (8104c <xTaskResumeAll+0xe0>)
   80fca:	681b      	ldr	r3, [r3, #0]
   80fcc:	6ae2      	ldr	r2, [r4, #44]	; 0x2c
   80fce:	6adb      	ldr	r3, [r3, #44]	; 0x2c
   80fd0:	429a      	cmp	r2, r3
   80fd2:	bf28      	it	cs
   80fd4:	2501      	movcs	r5, #1
   80fd6:	e004      	b.n	80fe2 <xTaskResumeAll+0x76>
   80fd8:	2500      	movs	r5, #0
   80fda:	f8df 8090 	ldr.w	r8, [pc, #144]	; 8106c <xTaskResumeAll+0x100>
   80fde:	4f1c      	ldr	r7, [pc, #112]	; (81050 <xTaskResumeAll+0xe4>)
   80fe0:	4e1c      	ldr	r6, [pc, #112]	; (81054 <xTaskResumeAll+0xe8>)
   80fe2:	f8d8 3000 	ldr.w	r3, [r8]
   80fe6:	2b00      	cmp	r3, #0
   80fe8:	d1d7      	bne.n	80f9a <xTaskResumeAll+0x2e>
   80fea:	4b1b      	ldr	r3, [pc, #108]	; (81058 <xTaskResumeAll+0xec>)
   80fec:	681b      	ldr	r3, [r3, #0]
   80fee:	b163      	cbz	r3, 8100a <xTaskResumeAll+0x9e>
   80ff0:	4b19      	ldr	r3, [pc, #100]	; (81058 <xTaskResumeAll+0xec>)
   80ff2:	681b      	ldr	r3, [r3, #0]
   80ff4:	b17b      	cbz	r3, 81016 <xTaskResumeAll+0xaa>
   80ff6:	4d19      	ldr	r5, [pc, #100]	; (8105c <xTaskResumeAll+0xf0>)
   80ff8:	4c17      	ldr	r4, [pc, #92]	; (81058 <xTaskResumeAll+0xec>)
   80ffa:	47a8      	blx	r5
   80ffc:	6823      	ldr	r3, [r4, #0]
   80ffe:	3b01      	subs	r3, #1
   81000:	6023      	str	r3, [r4, #0]
   81002:	6823      	ldr	r3, [r4, #0]
   81004:	2b00      	cmp	r3, #0
   81006:	d1f8      	bne.n	80ffa <xTaskResumeAll+0x8e>
   81008:	e005      	b.n	81016 <xTaskResumeAll+0xaa>
   8100a:	2d01      	cmp	r5, #1
   8100c:	d003      	beq.n	81016 <xTaskResumeAll+0xaa>
   8100e:	4b14      	ldr	r3, [pc, #80]	; (81060 <xTaskResumeAll+0xf4>)
   81010:	681b      	ldr	r3, [r3, #0]
   81012:	2b01      	cmp	r3, #1
   81014:	d108      	bne.n	81028 <xTaskResumeAll+0xbc>
   81016:	2200      	movs	r2, #0
   81018:	4b11      	ldr	r3, [pc, #68]	; (81060 <xTaskResumeAll+0xf4>)
   8101a:	601a      	str	r2, [r3, #0]
   8101c:	4b11      	ldr	r3, [pc, #68]	; (81064 <xTaskResumeAll+0xf8>)
   8101e:	4798      	blx	r3
   81020:	2401      	movs	r4, #1
   81022:	e002      	b.n	8102a <xTaskResumeAll+0xbe>
   81024:	2400      	movs	r4, #0
   81026:	e000      	b.n	8102a <xTaskResumeAll+0xbe>
   81028:	2400      	movs	r4, #0
   8102a:	4b0f      	ldr	r3, [pc, #60]	; (81068 <xTaskResumeAll+0xfc>)
   8102c:	4798      	blx	r3
   8102e:	4620      	mov	r0, r4
   81030:	e8bd 83f8 	ldmia.w	sp!, {r3, r4, r5, r6, r7, r8, r9, pc}
   81034:	2007a678 	.word	0x2007a678
   81038:	000803b5 	.word	0x000803b5
   8103c:	000803c5 	.word	0x000803c5
   81040:	2007a688 	.word	0x2007a688
   81044:	2007a5e4 	.word	0x2007a5e4
   81048:	000802d5 	.word	0x000802d5
   8104c:	2007a660 	.word	0x2007a660
   81050:	0008032d 	.word	0x0008032d
   81054:	2007a5e0 	.word	0x2007a5e0
   81058:	2007a594 	.word	0x2007a594
   8105c:	00080e4d 	.word	0x00080e4d
   81060:	2007a68c 	.word	0x2007a68c
   81064:	000803a5 	.word	0x000803a5
   81068:	000803e5 	.word	0x000803e5
   8106c:	2007a664 	.word	0x2007a664

00081070 <vTaskDelay>:
   81070:	b510      	push	{r4, lr}
   81072:	b180      	cbz	r0, 81096 <vTaskDelay+0x26>
   81074:	4604      	mov	r4, r0
   81076:	4b09      	ldr	r3, [pc, #36]	; (8109c <vTaskDelay+0x2c>)
   81078:	4798      	blx	r3
   8107a:	4b09      	ldr	r3, [pc, #36]	; (810a0 <vTaskDelay+0x30>)
   8107c:	681b      	ldr	r3, [r3, #0]
   8107e:	441c      	add	r4, r3
   81080:	4b08      	ldr	r3, [pc, #32]	; (810a4 <vTaskDelay+0x34>)
   81082:	6818      	ldr	r0, [r3, #0]
   81084:	3004      	adds	r0, #4
   81086:	4b08      	ldr	r3, [pc, #32]	; (810a8 <vTaskDelay+0x38>)
   81088:	4798      	blx	r3
   8108a:	4620      	mov	r0, r4
   8108c:	4b07      	ldr	r3, [pc, #28]	; (810ac <vTaskDelay+0x3c>)
   8108e:	4798      	blx	r3
   81090:	4b07      	ldr	r3, [pc, #28]	; (810b0 <vTaskDelay+0x40>)
   81092:	4798      	blx	r3
   81094:	b908      	cbnz	r0, 8109a <vTaskDelay+0x2a>
   81096:	4b07      	ldr	r3, [pc, #28]	; (810b4 <vTaskDelay+0x44>)
   81098:	4798      	blx	r3
   8109a:	bd10      	pop	{r4, pc}
   8109c:	00080e1d 	.word	0x00080e1d
   810a0:	2007a67c 	.word	0x2007a67c
   810a4:	2007a660 	.word	0x2007a660
   810a8:	0008032d 	.word	0x0008032d
   810ac:	00080b59 	.word	0x00080b59
   810b0:	00080f6d 	.word	0x00080f6d
   810b4:	000803a5 	.word	0x000803a5

000810b8 <prvIdleTask>:
   810b8:	b580      	push	{r7, lr}
   810ba:	4d15      	ldr	r5, [pc, #84]	; (81110 <prvIdleTask+0x58>)
   810bc:	4e15      	ldr	r6, [pc, #84]	; (81114 <prvIdleTask+0x5c>)
   810be:	f8df 8074 	ldr.w	r8, [pc, #116]	; 81134 <prvIdleTask+0x7c>
   810c2:	4f15      	ldr	r7, [pc, #84]	; (81118 <prvIdleTask+0x60>)
   810c4:	e019      	b.n	810fa <prvIdleTask+0x42>
   810c6:	47c0      	blx	r8
   810c8:	6834      	ldr	r4, [r6, #0]
   810ca:	47b8      	blx	r7
   810cc:	b1ac      	cbz	r4, 810fa <prvIdleTask+0x42>
   810ce:	4b13      	ldr	r3, [pc, #76]	; (8111c <prvIdleTask+0x64>)
   810d0:	4798      	blx	r3
   810d2:	68f3      	ldr	r3, [r6, #12]
   810d4:	68dc      	ldr	r4, [r3, #12]
   810d6:	1d20      	adds	r0, r4, #4
   810d8:	4b11      	ldr	r3, [pc, #68]	; (81120 <prvIdleTask+0x68>)
   810da:	4798      	blx	r3
   810dc:	4a11      	ldr	r2, [pc, #68]	; (81124 <prvIdleTask+0x6c>)
   810de:	6813      	ldr	r3, [r2, #0]
   810e0:	3b01      	subs	r3, #1
   810e2:	6013      	str	r3, [r2, #0]
   810e4:	682b      	ldr	r3, [r5, #0]
   810e6:	3b01      	subs	r3, #1
   810e8:	602b      	str	r3, [r5, #0]
   810ea:	4b0f      	ldr	r3, [pc, #60]	; (81128 <prvIdleTask+0x70>)
   810ec:	4798      	blx	r3
   810ee:	6b20      	ldr	r0, [r4, #48]	; 0x30
   810f0:	f8df 9044 	ldr.w	r9, [pc, #68]	; 81138 <prvIdleTask+0x80>
   810f4:	47c8      	blx	r9
   810f6:	4620      	mov	r0, r4
   810f8:	47c8      	blx	r9
   810fa:	682b      	ldr	r3, [r5, #0]
   810fc:	2b00      	cmp	r3, #0
   810fe:	d1e2      	bne.n	810c6 <prvIdleTask+0xe>
   81100:	4b0a      	ldr	r3, [pc, #40]	; (8112c <prvIdleTask+0x74>)
   81102:	681b      	ldr	r3, [r3, #0]
   81104:	2b01      	cmp	r3, #1
   81106:	d9f8      	bls.n	810fa <prvIdleTask+0x42>
   81108:	4b09      	ldr	r3, [pc, #36]	; (81130 <prvIdleTask+0x78>)
   8110a:	4798      	blx	r3
   8110c:	e7d7      	b.n	810be <prvIdleTask+0x6>
   8110e:	bf00      	nop
   81110:	2007a5b4 	.word	0x2007a5b4
   81114:	2007a648 	.word	0x2007a648
   81118:	00080f6d 	.word	0x00080f6d
   8111c:	000803c5 	.word	0x000803c5
   81120:	0008032d 	.word	0x0008032d
   81124:	2007a688 	.word	0x2007a688
   81128:	000803e5 	.word	0x000803e5
   8112c:	2007a5e4 	.word	0x2007a5e4
   81130:	000803a5 	.word	0x000803a5
   81134:	00080e1d 	.word	0x00080e1d
   81138:	000805d9 	.word	0x000805d9

0008113c <vTaskSwitchContext>:
   8113c:	b510      	push	{r4, lr}
   8113e:	4b22      	ldr	r3, [pc, #136]	; (811c8 <vTaskSwitchContext+0x8c>)
   81140:	681b      	ldr	r3, [r3, #0]
   81142:	b96b      	cbnz	r3, 81160 <vTaskSwitchContext+0x24>
   81144:	4b21      	ldr	r3, [pc, #132]	; (811cc <vTaskSwitchContext+0x90>)
   81146:	681b      	ldr	r3, [r3, #0]
   81148:	eb03 0383 	add.w	r3, r3, r3, lsl #2
   8114c:	009b      	lsls	r3, r3, #2
   8114e:	4a20      	ldr	r2, [pc, #128]	; (811d0 <vTaskSwitchContext+0x94>)
   81150:	58d3      	ldr	r3, [r2, r3]
   81152:	b9cb      	cbnz	r3, 81188 <vTaskSwitchContext+0x4c>
   81154:	4b1d      	ldr	r3, [pc, #116]	; (811cc <vTaskSwitchContext+0x90>)
   81156:	681b      	ldr	r3, [r3, #0]
   81158:	b143      	cbz	r3, 8116c <vTaskSwitchContext+0x30>
   8115a:	4a1c      	ldr	r2, [pc, #112]	; (811cc <vTaskSwitchContext+0x90>)
   8115c:	491c      	ldr	r1, [pc, #112]	; (811d0 <vTaskSwitchContext+0x94>)
   8115e:	e009      	b.n	81174 <vTaskSwitchContext+0x38>
   81160:	2201      	movs	r2, #1
   81162:	4b1c      	ldr	r3, [pc, #112]	; (811d4 <vTaskSwitchContext+0x98>)
   81164:	601a      	str	r2, [r3, #0]
   81166:	bd10      	pop	{r4, pc}
   81168:	6813      	ldr	r3, [r2, #0]
   8116a:	b91b      	cbnz	r3, 81174 <vTaskSwitchContext+0x38>
   8116c:	4b1a      	ldr	r3, [pc, #104]	; (811d8 <vTaskSwitchContext+0x9c>)
   8116e:	4798      	blx	r3
   81170:	bf00      	nop
   81172:	e7fd      	b.n	81170 <vTaskSwitchContext+0x34>
   81174:	6813      	ldr	r3, [r2, #0]
   81176:	3b01      	subs	r3, #1
   81178:	6013      	str	r3, [r2, #0]
   8117a:	6813      	ldr	r3, [r2, #0]
   8117c:	eb03 0383 	add.w	r3, r3, r3, lsl #2
   81180:	f851 3023 	ldr.w	r3, [r1, r3, lsl #2]
   81184:	2b00      	cmp	r3, #0
   81186:	d0ef      	beq.n	81168 <vTaskSwitchContext+0x2c>
   81188:	4b10      	ldr	r3, [pc, #64]	; (811cc <vTaskSwitchContext+0x90>)
   8118a:	681b      	ldr	r3, [r3, #0]
   8118c:	4a10      	ldr	r2, [pc, #64]	; (811d0 <vTaskSwitchContext+0x94>)
   8118e:	0099      	lsls	r1, r3, #2
   81190:	18c8      	adds	r0, r1, r3
   81192:	eb02 0080 	add.w	r0, r2, r0, lsl #2
   81196:	6844      	ldr	r4, [r0, #4]
   81198:	6864      	ldr	r4, [r4, #4]
   8119a:	6044      	str	r4, [r0, #4]
   8119c:	4602      	mov	r2, r0
   8119e:	3208      	adds	r2, #8
   811a0:	4294      	cmp	r4, r2
   811a2:	d106      	bne.n	811b2 <vTaskSwitchContext+0x76>
   811a4:	6860      	ldr	r0, [r4, #4]
   811a6:	eb03 0183 	add.w	r1, r3, r3, lsl #2
   811aa:	4a09      	ldr	r2, [pc, #36]	; (811d0 <vTaskSwitchContext+0x94>)
   811ac:	eb02 0281 	add.w	r2, r2, r1, lsl #2
   811b0:	6050      	str	r0, [r2, #4]
   811b2:	eb03 0383 	add.w	r3, r3, r3, lsl #2
   811b6:	4a06      	ldr	r2, [pc, #24]	; (811d0 <vTaskSwitchContext+0x94>)
   811b8:	eb02 0383 	add.w	r3, r2, r3, lsl #2
   811bc:	685b      	ldr	r3, [r3, #4]
   811be:	68da      	ldr	r2, [r3, #12]
   811c0:	4b06      	ldr	r3, [pc, #24]	; (811dc <vTaskSwitchContext+0xa0>)
   811c2:	601a      	str	r2, [r3, #0]
   811c4:	bd10      	pop	{r4, pc}
   811c6:	bf00      	nop
   811c8:	2007a678 	.word	0x2007a678
   811cc:	2007a5e0 	.word	0x2007a5e0
   811d0:	2007a5e4 	.word	0x2007a5e4
   811d4:	2007a68c 	.word	0x2007a68c
   811d8:	000803b5 	.word	0x000803b5
   811dc:	2007a660 	.word	0x2007a660

000811e0 <vTaskPlaceOnEventList>:
   811e0:	b538      	push	{r3, r4, r5, lr}
   811e2:	b918      	cbnz	r0, 811ec <vTaskPlaceOnEventList+0xc>
   811e4:	4b0e      	ldr	r3, [pc, #56]	; (81220 <vTaskPlaceOnEventList+0x40>)
   811e6:	4798      	blx	r3
   811e8:	bf00      	nop
   811ea:	e7fd      	b.n	811e8 <vTaskPlaceOnEventList+0x8>
   811ec:	460c      	mov	r4, r1
   811ee:	4d0d      	ldr	r5, [pc, #52]	; (81224 <vTaskPlaceOnEventList+0x44>)
   811f0:	6829      	ldr	r1, [r5, #0]
   811f2:	3118      	adds	r1, #24
   811f4:	4b0c      	ldr	r3, [pc, #48]	; (81228 <vTaskPlaceOnEventList+0x48>)
   811f6:	4798      	blx	r3
   811f8:	6828      	ldr	r0, [r5, #0]
   811fa:	3004      	adds	r0, #4
   811fc:	4b0b      	ldr	r3, [pc, #44]	; (8122c <vTaskPlaceOnEventList+0x4c>)
   811fe:	4798      	blx	r3
   81200:	f1b4 3fff 	cmp.w	r4, #4294967295
   81204:	d105      	bne.n	81212 <vTaskPlaceOnEventList+0x32>
   81206:	6829      	ldr	r1, [r5, #0]
   81208:	4809      	ldr	r0, [pc, #36]	; (81230 <vTaskPlaceOnEventList+0x50>)
   8120a:	3104      	adds	r1, #4
   8120c:	4b09      	ldr	r3, [pc, #36]	; (81234 <vTaskPlaceOnEventList+0x54>)
   8120e:	4798      	blx	r3
   81210:	bd38      	pop	{r3, r4, r5, pc}
   81212:	4b09      	ldr	r3, [pc, #36]	; (81238 <vTaskPlaceOnEventList+0x58>)
   81214:	6818      	ldr	r0, [r3, #0]
   81216:	4420      	add	r0, r4
   81218:	4b08      	ldr	r3, [pc, #32]	; (8123c <vTaskPlaceOnEventList+0x5c>)
   8121a:	4798      	blx	r3
   8121c:	bd38      	pop	{r3, r4, r5, pc}
   8121e:	bf00      	nop
   81220:	000803b5 	.word	0x000803b5
   81224:	2007a660 	.word	0x2007a660
   81228:	000802f1 	.word	0x000802f1
   8122c:	0008032d 	.word	0x0008032d
   81230:	2007a598 	.word	0x2007a598
   81234:	000802d5 	.word	0x000802d5
   81238:	2007a67c 	.word	0x2007a67c
   8123c:	00080b59 	.word	0x00080b59

00081240 <vTaskPlaceOnEventListRestricted>:
   81240:	b538      	push	{r3, r4, r5, lr}
   81242:	b918      	cbnz	r0, 8124c <vTaskPlaceOnEventListRestricted+0xc>
   81244:	4b09      	ldr	r3, [pc, #36]	; (8126c <vTaskPlaceOnEventListRestricted+0x2c>)
   81246:	4798      	blx	r3
   81248:	bf00      	nop
   8124a:	e7fd      	b.n	81248 <vTaskPlaceOnEventListRestricted+0x8>
   8124c:	460d      	mov	r5, r1
   8124e:	4c08      	ldr	r4, [pc, #32]	; (81270 <vTaskPlaceOnEventListRestricted+0x30>)
   81250:	6821      	ldr	r1, [r4, #0]
   81252:	3118      	adds	r1, #24
   81254:	4b07      	ldr	r3, [pc, #28]	; (81274 <vTaskPlaceOnEventListRestricted+0x34>)
   81256:	4798      	blx	r3
   81258:	6820      	ldr	r0, [r4, #0]
   8125a:	3004      	adds	r0, #4
   8125c:	4b06      	ldr	r3, [pc, #24]	; (81278 <vTaskPlaceOnEventListRestricted+0x38>)
   8125e:	4798      	blx	r3
   81260:	4b06      	ldr	r3, [pc, #24]	; (8127c <vTaskPlaceOnEventListRestricted+0x3c>)
   81262:	6818      	ldr	r0, [r3, #0]
   81264:	4428      	add	r0, r5
   81266:	4b06      	ldr	r3, [pc, #24]	; (81280 <vTaskPlaceOnEventListRestricted+0x40>)
   81268:	4798      	blx	r3
   8126a:	bd38      	pop	{r3, r4, r5, pc}
   8126c:	000803b5 	.word	0x000803b5
   81270:	2007a660 	.word	0x2007a660
   81274:	000802d5 	.word	0x000802d5
   81278:	0008032d 	.word	0x0008032d
   8127c:	2007a67c 	.word	0x2007a67c
   81280:	00080b59 	.word	0x00080b59

00081284 <xTaskRemoveFromEventList>:
   81284:	b538      	push	{r3, r4, r5, lr}
   81286:	68c3      	ldr	r3, [r0, #12]
   81288:	68dc      	ldr	r4, [r3, #12]
   8128a:	b91c      	cbnz	r4, 81294 <xTaskRemoveFromEventList+0x10>
   8128c:	4b16      	ldr	r3, [pc, #88]	; (812e8 <xTaskRemoveFromEventList+0x64>)
   8128e:	4798      	blx	r3
   81290:	bf00      	nop
   81292:	e7fd      	b.n	81290 <xTaskRemoveFromEventList+0xc>
   81294:	f104 0518 	add.w	r5, r4, #24
   81298:	4628      	mov	r0, r5
   8129a:	4b14      	ldr	r3, [pc, #80]	; (812ec <xTaskRemoveFromEventList+0x68>)
   8129c:	4798      	blx	r3
   8129e:	4b14      	ldr	r3, [pc, #80]	; (812f0 <xTaskRemoveFromEventList+0x6c>)
   812a0:	681b      	ldr	r3, [r3, #0]
   812a2:	b99b      	cbnz	r3, 812cc <xTaskRemoveFromEventList+0x48>
   812a4:	1d25      	adds	r5, r4, #4
   812a6:	4628      	mov	r0, r5
   812a8:	4b10      	ldr	r3, [pc, #64]	; (812ec <xTaskRemoveFromEventList+0x68>)
   812aa:	4798      	blx	r3
   812ac:	6ae0      	ldr	r0, [r4, #44]	; 0x2c
   812ae:	4b11      	ldr	r3, [pc, #68]	; (812f4 <xTaskRemoveFromEventList+0x70>)
   812b0:	681b      	ldr	r3, [r3, #0]
   812b2:	4298      	cmp	r0, r3
   812b4:	bf84      	itt	hi
   812b6:	4b0f      	ldrhi	r3, [pc, #60]	; (812f4 <xTaskRemoveFromEventList+0x70>)
   812b8:	6018      	strhi	r0, [r3, #0]
   812ba:	eb00 0080 	add.w	r0, r0, r0, lsl #2
   812be:	4b0e      	ldr	r3, [pc, #56]	; (812f8 <xTaskRemoveFromEventList+0x74>)
   812c0:	eb03 0080 	add.w	r0, r3, r0, lsl #2
   812c4:	4629      	mov	r1, r5
   812c6:	4b0d      	ldr	r3, [pc, #52]	; (812fc <xTaskRemoveFromEventList+0x78>)
   812c8:	4798      	blx	r3
   812ca:	e003      	b.n	812d4 <xTaskRemoveFromEventList+0x50>
   812cc:	480c      	ldr	r0, [pc, #48]	; (81300 <xTaskRemoveFromEventList+0x7c>)
   812ce:	4629      	mov	r1, r5
   812d0:	4b0a      	ldr	r3, [pc, #40]	; (812fc <xTaskRemoveFromEventList+0x78>)
   812d2:	4798      	blx	r3
   812d4:	4b0b      	ldr	r3, [pc, #44]	; (81304 <xTaskRemoveFromEventList+0x80>)
   812d6:	681b      	ldr	r3, [r3, #0]
   812d8:	6ae0      	ldr	r0, [r4, #44]	; 0x2c
   812da:	6adb      	ldr	r3, [r3, #44]	; 0x2c
   812dc:	4298      	cmp	r0, r3
   812de:	bf34      	ite	cc
   812e0:	2000      	movcc	r0, #0
   812e2:	2001      	movcs	r0, #1
   812e4:	bd38      	pop	{r3, r4, r5, pc}
   812e6:	bf00      	nop
   812e8:	000803b5 	.word	0x000803b5
   812ec:	0008032d 	.word	0x0008032d
   812f0:	2007a678 	.word	0x2007a678
   812f4:	2007a5e0 	.word	0x2007a5e0
   812f8:	2007a5e4 	.word	0x2007a5e4
   812fc:	000802d5 	.word	0x000802d5
   81300:	2007a664 	.word	0x2007a664
   81304:	2007a660 	.word	0x2007a660

00081308 <vTaskSetTimeOutState>:
   81308:	b508      	push	{r3, lr}
   8130a:	b918      	cbnz	r0, 81314 <vTaskSetTimeOutState+0xc>
   8130c:	4b05      	ldr	r3, [pc, #20]	; (81324 <vTaskSetTimeOutState+0x1c>)
   8130e:	4798      	blx	r3
   81310:	bf00      	nop
   81312:	e7fd      	b.n	81310 <vTaskSetTimeOutState+0x8>
   81314:	4a04      	ldr	r2, [pc, #16]	; (81328 <vTaskSetTimeOutState+0x20>)
   81316:	6812      	ldr	r2, [r2, #0]
   81318:	6002      	str	r2, [r0, #0]
   8131a:	4a04      	ldr	r2, [pc, #16]	; (8132c <vTaskSetTimeOutState+0x24>)
   8131c:	6812      	ldr	r2, [r2, #0]
   8131e:	6042      	str	r2, [r0, #4]
   81320:	bd08      	pop	{r3, pc}
   81322:	bf00      	nop
   81324:	000803b5 	.word	0x000803b5
   81328:	2007a65c 	.word	0x2007a65c
   8132c:	2007a67c 	.word	0x2007a67c

00081330 <xTaskCheckForTimeOut>:
   81330:	b538      	push	{r3, r4, r5, lr}
   81332:	b918      	cbnz	r0, 8133c <xTaskCheckForTimeOut+0xc>
   81334:	4b19      	ldr	r3, [pc, #100]	; (8139c <xTaskCheckForTimeOut+0x6c>)
   81336:	4798      	blx	r3
   81338:	bf00      	nop
   8133a:	e7fd      	b.n	81338 <xTaskCheckForTimeOut+0x8>
   8133c:	460d      	mov	r5, r1
   8133e:	4604      	mov	r4, r0
   81340:	b919      	cbnz	r1, 8134a <xTaskCheckForTimeOut+0x1a>
   81342:	4b16      	ldr	r3, [pc, #88]	; (8139c <xTaskCheckForTimeOut+0x6c>)
   81344:	4798      	blx	r3
   81346:	bf00      	nop
   81348:	e7fd      	b.n	81346 <xTaskCheckForTimeOut+0x16>
   8134a:	4b15      	ldr	r3, [pc, #84]	; (813a0 <xTaskCheckForTimeOut+0x70>)
   8134c:	4798      	blx	r3
   8134e:	682b      	ldr	r3, [r5, #0]
   81350:	f1b3 3fff 	cmp.w	r3, #4294967295
   81354:	d018      	beq.n	81388 <xTaskCheckForTimeOut+0x58>
   81356:	4a13      	ldr	r2, [pc, #76]	; (813a4 <xTaskCheckForTimeOut+0x74>)
   81358:	6812      	ldr	r2, [r2, #0]
   8135a:	6821      	ldr	r1, [r4, #0]
   8135c:	4291      	cmp	r1, r2
   8135e:	d004      	beq.n	8136a <xTaskCheckForTimeOut+0x3a>
   81360:	4a11      	ldr	r2, [pc, #68]	; (813a8 <xTaskCheckForTimeOut+0x78>)
   81362:	6812      	ldr	r2, [r2, #0]
   81364:	6861      	ldr	r1, [r4, #4]
   81366:	4291      	cmp	r1, r2
   81368:	d910      	bls.n	8138c <xTaskCheckForTimeOut+0x5c>
   8136a:	4a0f      	ldr	r2, [pc, #60]	; (813a8 <xTaskCheckForTimeOut+0x78>)
   8136c:	6811      	ldr	r1, [r2, #0]
   8136e:	6860      	ldr	r0, [r4, #4]
   81370:	1a09      	subs	r1, r1, r0
   81372:	428b      	cmp	r3, r1
   81374:	d90c      	bls.n	81390 <xTaskCheckForTimeOut+0x60>
   81376:	6812      	ldr	r2, [r2, #0]
   81378:	1a12      	subs	r2, r2, r0
   8137a:	1a9b      	subs	r3, r3, r2
   8137c:	602b      	str	r3, [r5, #0]
   8137e:	4620      	mov	r0, r4
   81380:	4b0a      	ldr	r3, [pc, #40]	; (813ac <xTaskCheckForTimeOut+0x7c>)
   81382:	4798      	blx	r3
   81384:	2400      	movs	r4, #0
   81386:	e004      	b.n	81392 <xTaskCheckForTimeOut+0x62>
   81388:	2400      	movs	r4, #0
   8138a:	e002      	b.n	81392 <xTaskCheckForTimeOut+0x62>
   8138c:	2401      	movs	r4, #1
   8138e:	e000      	b.n	81392 <xTaskCheckForTimeOut+0x62>
   81390:	2401      	movs	r4, #1
   81392:	4b07      	ldr	r3, [pc, #28]	; (813b0 <xTaskCheckForTimeOut+0x80>)
   81394:	4798      	blx	r3
   81396:	4620      	mov	r0, r4
   81398:	bd38      	pop	{r3, r4, r5, pc}
   8139a:	bf00      	nop
   8139c:	000803b5 	.word	0x000803b5
   813a0:	000803c5 	.word	0x000803c5
   813a4:	2007a65c 	.word	0x2007a65c
   813a8:	2007a67c 	.word	0x2007a67c
   813ac:	00081309 	.word	0x00081309
   813b0:	000803e5 	.word	0x000803e5

000813b4 <vTaskMissedYield>:
   813b4:	2201      	movs	r2, #1
   813b6:	4b01      	ldr	r3, [pc, #4]	; (813bc <vTaskMissedYield+0x8>)
   813b8:	601a      	str	r2, [r3, #0]
   813ba:	4770      	bx	lr
   813bc:	2007a68c 	.word	0x2007a68c

000813c0 <xTaskGetCurrentTaskHandle>:
   813c0:	4b01      	ldr	r3, [pc, #4]	; (813c8 <xTaskGetCurrentTaskHandle+0x8>)
   813c2:	6818      	ldr	r0, [r3, #0]
   813c4:	4770      	bx	lr
   813c6:	bf00      	nop
   813c8:	2007a660 	.word	0x2007a660

000813cc <xTaskGetSchedulerState>:
   813cc:	4b05      	ldr	r3, [pc, #20]	; (813e4 <xTaskGetSchedulerState+0x18>)
   813ce:	681b      	ldr	r3, [r3, #0]
   813d0:	b133      	cbz	r3, 813e0 <xTaskGetSchedulerState+0x14>
   813d2:	4b05      	ldr	r3, [pc, #20]	; (813e8 <xTaskGetSchedulerState+0x1c>)
   813d4:	681b      	ldr	r3, [r3, #0]
   813d6:	2b00      	cmp	r3, #0
   813d8:	bf0c      	ite	eq
   813da:	2001      	moveq	r0, #1
   813dc:	2002      	movne	r0, #2
   813de:	4770      	bx	lr
   813e0:	2000      	movs	r0, #0
   813e2:	4770      	bx	lr
   813e4:	2007a5b0 	.word	0x2007a5b0
   813e8:	2007a678 	.word	0x2007a678

000813ec <vTaskPriorityInherit>:
   813ec:	2800      	cmp	r0, #0
   813ee:	d031      	beq.n	81454 <vTaskPriorityInherit+0x68>
   813f0:	b538      	push	{r3, r4, r5, lr}
   813f2:	6ac3      	ldr	r3, [r0, #44]	; 0x2c
   813f4:	4918      	ldr	r1, [pc, #96]	; (81458 <vTaskPriorityInherit+0x6c>)
   813f6:	6809      	ldr	r1, [r1, #0]
   813f8:	6ac9      	ldr	r1, [r1, #44]	; 0x2c
   813fa:	428b      	cmp	r3, r1
   813fc:	d229      	bcs.n	81452 <vTaskPriorityInherit+0x66>
   813fe:	4916      	ldr	r1, [pc, #88]	; (81458 <vTaskPriorityInherit+0x6c>)
   81400:	6809      	ldr	r1, [r1, #0]
   81402:	6ac9      	ldr	r1, [r1, #44]	; 0x2c
   81404:	f1c1 0105 	rsb	r1, r1, #5
   81408:	6181      	str	r1, [r0, #24]
   8140a:	eb03 0383 	add.w	r3, r3, r3, lsl #2
   8140e:	4913      	ldr	r1, [pc, #76]	; (8145c <vTaskPriorityInherit+0x70>)
   81410:	eb01 0383 	add.w	r3, r1, r3, lsl #2
   81414:	6941      	ldr	r1, [r0, #20]
   81416:	4299      	cmp	r1, r3
   81418:	d117      	bne.n	8144a <vTaskPriorityInherit+0x5e>
   8141a:	4605      	mov	r5, r0
   8141c:	1d04      	adds	r4, r0, #4
   8141e:	4620      	mov	r0, r4
   81420:	4b0f      	ldr	r3, [pc, #60]	; (81460 <vTaskPriorityInherit+0x74>)
   81422:	4798      	blx	r3
   81424:	4b0c      	ldr	r3, [pc, #48]	; (81458 <vTaskPriorityInherit+0x6c>)
   81426:	681b      	ldr	r3, [r3, #0]
   81428:	6ad8      	ldr	r0, [r3, #44]	; 0x2c
   8142a:	62e8      	str	r0, [r5, #44]	; 0x2c
   8142c:	4b0d      	ldr	r3, [pc, #52]	; (81464 <vTaskPriorityInherit+0x78>)
   8142e:	681b      	ldr	r3, [r3, #0]
   81430:	4298      	cmp	r0, r3
   81432:	bf84      	itt	hi
   81434:	4b0b      	ldrhi	r3, [pc, #44]	; (81464 <vTaskPriorityInherit+0x78>)
   81436:	6018      	strhi	r0, [r3, #0]
   81438:	eb00 0080 	add.w	r0, r0, r0, lsl #2
   8143c:	4b07      	ldr	r3, [pc, #28]	; (8145c <vTaskPriorityInherit+0x70>)
   8143e:	eb03 0080 	add.w	r0, r3, r0, lsl #2
   81442:	4621      	mov	r1, r4
   81444:	4b08      	ldr	r3, [pc, #32]	; (81468 <vTaskPriorityInherit+0x7c>)
   81446:	4798      	blx	r3
   81448:	bd38      	pop	{r3, r4, r5, pc}
   8144a:	4b03      	ldr	r3, [pc, #12]	; (81458 <vTaskPriorityInherit+0x6c>)
   8144c:	681b      	ldr	r3, [r3, #0]
   8144e:	6adb      	ldr	r3, [r3, #44]	; 0x2c
   81450:	62c3      	str	r3, [r0, #44]	; 0x2c
   81452:	bd38      	pop	{r3, r4, r5, pc}
   81454:	4770      	bx	lr
   81456:	bf00      	nop
   81458:	2007a660 	.word	0x2007a660
   8145c:	2007a5e4 	.word	0x2007a5e4
   81460:	0008032d 	.word	0x0008032d
   81464:	2007a5e0 	.word	0x2007a5e0
   81468:	000802d5 	.word	0x000802d5

0008146c <vTaskPriorityDisinherit>:
   8146c:	b1e8      	cbz	r0, 814aa <vTaskPriorityDisinherit+0x3e>
   8146e:	b538      	push	{r3, r4, r5, lr}
   81470:	6ac1      	ldr	r1, [r0, #44]	; 0x2c
   81472:	6c82      	ldr	r2, [r0, #72]	; 0x48
   81474:	4291      	cmp	r1, r2
   81476:	d017      	beq.n	814a8 <vTaskPriorityDisinherit+0x3c>
   81478:	4604      	mov	r4, r0
   8147a:	1d05      	adds	r5, r0, #4
   8147c:	4628      	mov	r0, r5
   8147e:	4b0b      	ldr	r3, [pc, #44]	; (814ac <vTaskPriorityDisinherit+0x40>)
   81480:	4798      	blx	r3
   81482:	6ca0      	ldr	r0, [r4, #72]	; 0x48
   81484:	62e0      	str	r0, [r4, #44]	; 0x2c
   81486:	f1c0 0305 	rsb	r3, r0, #5
   8148a:	61a3      	str	r3, [r4, #24]
   8148c:	4b08      	ldr	r3, [pc, #32]	; (814b0 <vTaskPriorityDisinherit+0x44>)
   8148e:	681b      	ldr	r3, [r3, #0]
   81490:	4298      	cmp	r0, r3
   81492:	bf84      	itt	hi
   81494:	4b06      	ldrhi	r3, [pc, #24]	; (814b0 <vTaskPriorityDisinherit+0x44>)
   81496:	6018      	strhi	r0, [r3, #0]
   81498:	eb00 0080 	add.w	r0, r0, r0, lsl #2
   8149c:	4b05      	ldr	r3, [pc, #20]	; (814b4 <vTaskPriorityDisinherit+0x48>)
   8149e:	eb03 0080 	add.w	r0, r3, r0, lsl #2
   814a2:	4629      	mov	r1, r5
   814a4:	4b04      	ldr	r3, [pc, #16]	; (814b8 <vTaskPriorityDisinherit+0x4c>)
   814a6:	4798      	blx	r3
   814a8:	bd38      	pop	{r3, r4, r5, pc}
   814aa:	4770      	bx	lr
   814ac:	0008032d 	.word	0x0008032d
   814b0:	2007a5e0 	.word	0x2007a5e0
   814b4:	2007a5e4 	.word	0x2007a5e4
   814b8:	000802d5 	.word	0x000802d5

000814bc <prvInsertTimerInActiveList>:
   814bc:	b510      	push	{r4, lr}
   814be:	4604      	mov	r4, r0
   814c0:	6041      	str	r1, [r0, #4]
   814c2:	6120      	str	r0, [r4, #16]
   814c4:	4291      	cmp	r1, r2
   814c6:	d80a      	bhi.n	814de <prvInsertTimerInActiveList+0x22>
   814c8:	1ad2      	subs	r2, r2, r3
   814ca:	6983      	ldr	r3, [r0, #24]
   814cc:	429a      	cmp	r2, r3
   814ce:	d211      	bcs.n	814f4 <prvInsertTimerInActiveList+0x38>
   814d0:	4b0a      	ldr	r3, [pc, #40]	; (814fc <prvInsertTimerInActiveList+0x40>)
   814d2:	6818      	ldr	r0, [r3, #0]
   814d4:	1d21      	adds	r1, r4, #4
   814d6:	4b0a      	ldr	r3, [pc, #40]	; (81500 <prvInsertTimerInActiveList+0x44>)
   814d8:	4798      	blx	r3
   814da:	2000      	movs	r0, #0
   814dc:	bd10      	pop	{r4, pc}
   814de:	429a      	cmp	r2, r3
   814e0:	d201      	bcs.n	814e6 <prvInsertTimerInActiveList+0x2a>
   814e2:	4299      	cmp	r1, r3
   814e4:	d208      	bcs.n	814f8 <prvInsertTimerInActiveList+0x3c>
   814e6:	4b07      	ldr	r3, [pc, #28]	; (81504 <prvInsertTimerInActiveList+0x48>)
   814e8:	6818      	ldr	r0, [r3, #0]
   814ea:	1d21      	adds	r1, r4, #4
   814ec:	4b04      	ldr	r3, [pc, #16]	; (81500 <prvInsertTimerInActiveList+0x44>)
   814ee:	4798      	blx	r3
   814f0:	2000      	movs	r0, #0
   814f2:	bd10      	pop	{r4, pc}
   814f4:	2001      	movs	r0, #1
   814f6:	bd10      	pop	{r4, pc}
   814f8:	2001      	movs	r0, #1
   814fa:	bd10      	pop	{r4, pc}
   814fc:	2007a6c8 	.word	0x2007a6c8
   81500:	000802f1 	.word	0x000802f1
   81504:	2007a694 	.word	0x2007a694

00081508 <prvCheckForValidListAndQueue>:
   81508:	b570      	push	{r4, r5, r6, lr}
   8150a:	4b0d      	ldr	r3, [pc, #52]	; (81540 <prvCheckForValidListAndQueue+0x38>)
   8150c:	4798      	blx	r3
   8150e:	4b0d      	ldr	r3, [pc, #52]	; (81544 <prvCheckForValidListAndQueue+0x3c>)
   81510:	681b      	ldr	r3, [r3, #0]
   81512:	b98b      	cbnz	r3, 81538 <prvCheckForValidListAndQueue+0x30>
   81514:	4d0c      	ldr	r5, [pc, #48]	; (81548 <prvCheckForValidListAndQueue+0x40>)
   81516:	4628      	mov	r0, r5
   81518:	4e0c      	ldr	r6, [pc, #48]	; (8154c <prvCheckForValidListAndQueue+0x44>)
   8151a:	47b0      	blx	r6
   8151c:	4c0c      	ldr	r4, [pc, #48]	; (81550 <prvCheckForValidListAndQueue+0x48>)
   8151e:	4620      	mov	r0, r4
   81520:	47b0      	blx	r6
   81522:	4b0c      	ldr	r3, [pc, #48]	; (81554 <prvCheckForValidListAndQueue+0x4c>)
   81524:	601d      	str	r5, [r3, #0]
   81526:	4b0c      	ldr	r3, [pc, #48]	; (81558 <prvCheckForValidListAndQueue+0x50>)
   81528:	601c      	str	r4, [r3, #0]
   8152a:	2005      	movs	r0, #5
   8152c:	210c      	movs	r1, #12
   8152e:	2200      	movs	r2, #0
   81530:	4b0a      	ldr	r3, [pc, #40]	; (8155c <prvCheckForValidListAndQueue+0x54>)
   81532:	4798      	blx	r3
   81534:	4b03      	ldr	r3, [pc, #12]	; (81544 <prvCheckForValidListAndQueue+0x3c>)
   81536:	6018      	str	r0, [r3, #0]
   81538:	4b09      	ldr	r3, [pc, #36]	; (81560 <prvCheckForValidListAndQueue+0x58>)
   8153a:	4798      	blx	r3
   8153c:	bd70      	pop	{r4, r5, r6, pc}
   8153e:	bf00      	nop
   81540:	000803c5 	.word	0x000803c5
   81544:	2007a6c4 	.word	0x2007a6c4
   81548:	2007a698 	.word	0x2007a698
   8154c:	000802b5 	.word	0x000802b5
   81550:	2007a6ac 	.word	0x2007a6ac
   81554:	2007a694 	.word	0x2007a694
   81558:	2007a6c8 	.word	0x2007a6c8
   8155c:	000807a9 	.word	0x000807a9
   81560:	000803e5 	.word	0x000803e5

00081564 <xTimerCreateTimerTask>:
   81564:	b510      	push	{r4, lr}
   81566:	b084      	sub	sp, #16
   81568:	4b0b      	ldr	r3, [pc, #44]	; (81598 <xTimerCreateTimerTask+0x34>)
   8156a:	4798      	blx	r3
   8156c:	4b0b      	ldr	r3, [pc, #44]	; (8159c <xTimerCreateTimerTask+0x38>)
   8156e:	681b      	ldr	r3, [r3, #0]
   81570:	b163      	cbz	r3, 8158c <xTimerCreateTimerTask+0x28>
   81572:	2304      	movs	r3, #4
   81574:	9300      	str	r3, [sp, #0]
   81576:	2300      	movs	r3, #0
   81578:	9301      	str	r3, [sp, #4]
   8157a:	9302      	str	r3, [sp, #8]
   8157c:	9303      	str	r3, [sp, #12]
   8157e:	4808      	ldr	r0, [pc, #32]	; (815a0 <xTimerCreateTimerTask+0x3c>)
   81580:	4908      	ldr	r1, [pc, #32]	; (815a4 <xTimerCreateTimerTask+0x40>)
   81582:	f44f 7282 	mov.w	r2, #260	; 0x104
   81586:	4c08      	ldr	r4, [pc, #32]	; (815a8 <xTimerCreateTimerTask+0x44>)
   81588:	47a0      	blx	r4
   8158a:	b918      	cbnz	r0, 81594 <xTimerCreateTimerTask+0x30>
   8158c:	4b07      	ldr	r3, [pc, #28]	; (815ac <xTimerCreateTimerTask+0x48>)
   8158e:	4798      	blx	r3
   81590:	bf00      	nop
   81592:	e7fd      	b.n	81590 <xTimerCreateTimerTask+0x2c>
   81594:	b004      	add	sp, #16
   81596:	bd10      	pop	{r4, pc}
   81598:	00081509 	.word	0x00081509
   8159c:	2007a6c4 	.word	0x2007a6c4
   815a0:	000816b9 	.word	0x000816b9
   815a4:	000823b8 	.word	0x000823b8
   815a8:	00080bb1 	.word	0x00080bb1
   815ac:	000803b5 	.word	0x000803b5

000815b0 <xTimerGenericCommand>:
   815b0:	b530      	push	{r4, r5, lr}
   815b2:	b085      	sub	sp, #20
   815b4:	4c0f      	ldr	r4, [pc, #60]	; (815f4 <xTimerGenericCommand+0x44>)
   815b6:	6825      	ldr	r5, [r4, #0]
   815b8:	b1c5      	cbz	r5, 815ec <xTimerGenericCommand+0x3c>
   815ba:	9101      	str	r1, [sp, #4]
   815bc:	9202      	str	r2, [sp, #8]
   815be:	9003      	str	r0, [sp, #12]
   815c0:	b96b      	cbnz	r3, 815de <xTimerGenericCommand+0x2e>
   815c2:	4b0d      	ldr	r3, [pc, #52]	; (815f8 <xTimerGenericCommand+0x48>)
   815c4:	4798      	blx	r3
   815c6:	2801      	cmp	r0, #1
   815c8:	4b0a      	ldr	r3, [pc, #40]	; (815f4 <xTimerGenericCommand+0x44>)
   815ca:	6818      	ldr	r0, [r3, #0]
   815cc:	a901      	add	r1, sp, #4
   815ce:	bf07      	ittee	eq
   815d0:	9a08      	ldreq	r2, [sp, #32]
   815d2:	2300      	moveq	r3, #0
   815d4:	2200      	movne	r2, #0
   815d6:	4613      	movne	r3, r2
   815d8:	4c08      	ldr	r4, [pc, #32]	; (815fc <xTimerGenericCommand+0x4c>)
   815da:	47a0      	blx	r4
   815dc:	e007      	b.n	815ee <xTimerGenericCommand+0x3e>
   815de:	4628      	mov	r0, r5
   815e0:	a901      	add	r1, sp, #4
   815e2:	461a      	mov	r2, r3
   815e4:	2300      	movs	r3, #0
   815e6:	4c06      	ldr	r4, [pc, #24]	; (81600 <xTimerGenericCommand+0x50>)
   815e8:	47a0      	blx	r4
   815ea:	e000      	b.n	815ee <xTimerGenericCommand+0x3e>
   815ec:	2000      	movs	r0, #0
   815ee:	b005      	add	sp, #20
   815f0:	bd30      	pop	{r4, r5, pc}
   815f2:	bf00      	nop
   815f4:	2007a6c4 	.word	0x2007a6c4
   815f8:	000813cd 	.word	0x000813cd
   815fc:	00080801 	.word	0x00080801
   81600:	00080921 	.word	0x00080921

00081604 <prvSampleTimeNow>:
   81604:	e92d 47f0 	stmdb	sp!, {r4, r5, r6, r7, r8, r9, sl, lr}
   81608:	b082      	sub	sp, #8
   8160a:	4681      	mov	r9, r0
   8160c:	4b22      	ldr	r3, [pc, #136]	; (81698 <prvSampleTimeNow+0x94>)
   8160e:	4798      	blx	r3
   81610:	4680      	mov	r8, r0
   81612:	4b22      	ldr	r3, [pc, #136]	; (8169c <prvSampleTimeNow+0x98>)
   81614:	681b      	ldr	r3, [r3, #0]
   81616:	4298      	cmp	r0, r3
   81618:	d234      	bcs.n	81684 <prvSampleTimeNow+0x80>
   8161a:	e024      	b.n	81666 <prvSampleTimeNow+0x62>
   8161c:	68da      	ldr	r2, [r3, #12]
   8161e:	f8d2 a000 	ldr.w	sl, [r2]
   81622:	68db      	ldr	r3, [r3, #12]
   81624:	68dc      	ldr	r4, [r3, #12]
   81626:	1d25      	adds	r5, r4, #4
   81628:	4628      	mov	r0, r5
   8162a:	47b8      	blx	r7
   8162c:	6a63      	ldr	r3, [r4, #36]	; 0x24
   8162e:	4620      	mov	r0, r4
   81630:	4798      	blx	r3
   81632:	69e3      	ldr	r3, [r4, #28]
   81634:	2b01      	cmp	r3, #1
   81636:	d118      	bne.n	8166a <prvSampleTimeNow+0x66>
   81638:	69a3      	ldr	r3, [r4, #24]
   8163a:	4453      	add	r3, sl
   8163c:	4553      	cmp	r3, sl
   8163e:	d906      	bls.n	8164e <prvSampleTimeNow+0x4a>
   81640:	6063      	str	r3, [r4, #4]
   81642:	6124      	str	r4, [r4, #16]
   81644:	6830      	ldr	r0, [r6, #0]
   81646:	4629      	mov	r1, r5
   81648:	4b15      	ldr	r3, [pc, #84]	; (816a0 <prvSampleTimeNow+0x9c>)
   8164a:	4798      	blx	r3
   8164c:	e00d      	b.n	8166a <prvSampleTimeNow+0x66>
   8164e:	2300      	movs	r3, #0
   81650:	9300      	str	r3, [sp, #0]
   81652:	4620      	mov	r0, r4
   81654:	4619      	mov	r1, r3
   81656:	4652      	mov	r2, sl
   81658:	4c12      	ldr	r4, [pc, #72]	; (816a4 <prvSampleTimeNow+0xa0>)
   8165a:	47a0      	blx	r4
   8165c:	b928      	cbnz	r0, 8166a <prvSampleTimeNow+0x66>
   8165e:	4b12      	ldr	r3, [pc, #72]	; (816a8 <prvSampleTimeNow+0xa4>)
   81660:	4798      	blx	r3
   81662:	bf00      	nop
   81664:	e7fd      	b.n	81662 <prvSampleTimeNow+0x5e>
   81666:	4e11      	ldr	r6, [pc, #68]	; (816ac <prvSampleTimeNow+0xa8>)
   81668:	4f11      	ldr	r7, [pc, #68]	; (816b0 <prvSampleTimeNow+0xac>)
   8166a:	6833      	ldr	r3, [r6, #0]
   8166c:	681a      	ldr	r2, [r3, #0]
   8166e:	2a00      	cmp	r2, #0
   81670:	d1d4      	bne.n	8161c <prvSampleTimeNow+0x18>
   81672:	4a10      	ldr	r2, [pc, #64]	; (816b4 <prvSampleTimeNow+0xb0>)
   81674:	6810      	ldr	r0, [r2, #0]
   81676:	490d      	ldr	r1, [pc, #52]	; (816ac <prvSampleTimeNow+0xa8>)
   81678:	6008      	str	r0, [r1, #0]
   8167a:	6013      	str	r3, [r2, #0]
   8167c:	2301      	movs	r3, #1
   8167e:	f8c9 3000 	str.w	r3, [r9]
   81682:	e002      	b.n	8168a <prvSampleTimeNow+0x86>
   81684:	2300      	movs	r3, #0
   81686:	f8c9 3000 	str.w	r3, [r9]
   8168a:	4b04      	ldr	r3, [pc, #16]	; (8169c <prvSampleTimeNow+0x98>)
   8168c:	f8c3 8000 	str.w	r8, [r3]
   81690:	4640      	mov	r0, r8
   81692:	b002      	add	sp, #8
   81694:	e8bd 87f0 	ldmia.w	sp!, {r4, r5, r6, r7, r8, r9, sl, pc}
   81698:	00080e2d 	.word	0x00080e2d
   8169c:	2007a6c0 	.word	0x2007a6c0
   816a0:	000802f1 	.word	0x000802f1
   816a4:	000815b1 	.word	0x000815b1
   816a8:	000803b5 	.word	0x000803b5
   816ac:	2007a694 	.word	0x2007a694
   816b0:	0008032d 	.word	0x0008032d
   816b4:	2007a6c8 	.word	0x2007a6c8

000816b8 <prvTimerTask>:
   816b8:	e92d 43f0 	stmdb	sp!, {r4, r5, r6, r7, r8, r9, lr}
   816bc:	b087      	sub	sp, #28
   816be:	4d4d      	ldr	r5, [pc, #308]	; (817f4 <prvTimerTask+0x13c>)
   816c0:	f8df 8160 	ldr.w	r8, [pc, #352]	; 81824 <prvTimerTask+0x16c>
   816c4:	4b4c      	ldr	r3, [pc, #304]	; (817f8 <prvTimerTask+0x140>)
   816c6:	681b      	ldr	r3, [r3, #0]
   816c8:	681a      	ldr	r2, [r3, #0]
   816ca:	2a00      	cmp	r2, #0
   816cc:	f000 8087 	beq.w	817de <prvTimerTask+0x126>
   816d0:	68db      	ldr	r3, [r3, #12]
   816d2:	681e      	ldr	r6, [r3, #0]
   816d4:	4b49      	ldr	r3, [pc, #292]	; (817fc <prvTimerTask+0x144>)
   816d6:	4798      	blx	r3
   816d8:	a803      	add	r0, sp, #12
   816da:	4b49      	ldr	r3, [pc, #292]	; (81800 <prvTimerTask+0x148>)
   816dc:	4798      	blx	r3
   816de:	4607      	mov	r7, r0
   816e0:	9b03      	ldr	r3, [sp, #12]
   816e2:	2b00      	cmp	r3, #0
   816e4:	d130      	bne.n	81748 <prvTimerTask+0x90>
   816e6:	4286      	cmp	r6, r0
   816e8:	d824      	bhi.n	81734 <prvTimerTask+0x7c>
   816ea:	4b46      	ldr	r3, [pc, #280]	; (81804 <prvTimerTask+0x14c>)
   816ec:	4798      	blx	r3
   816ee:	4b42      	ldr	r3, [pc, #264]	; (817f8 <prvTimerTask+0x140>)
   816f0:	681b      	ldr	r3, [r3, #0]
   816f2:	68db      	ldr	r3, [r3, #12]
   816f4:	68dc      	ldr	r4, [r3, #12]
   816f6:	1d20      	adds	r0, r4, #4
   816f8:	47c0      	blx	r8
   816fa:	69e3      	ldr	r3, [r4, #28]
   816fc:	2b01      	cmp	r3, #1
   816fe:	d114      	bne.n	8172a <prvTimerTask+0x72>
   81700:	69a1      	ldr	r1, [r4, #24]
   81702:	4620      	mov	r0, r4
   81704:	4431      	add	r1, r6
   81706:	463a      	mov	r2, r7
   81708:	4633      	mov	r3, r6
   8170a:	4f3f      	ldr	r7, [pc, #252]	; (81808 <prvTimerTask+0x150>)
   8170c:	47b8      	blx	r7
   8170e:	2801      	cmp	r0, #1
   81710:	d10b      	bne.n	8172a <prvTimerTask+0x72>
   81712:	2300      	movs	r3, #0
   81714:	9300      	str	r3, [sp, #0]
   81716:	4620      	mov	r0, r4
   81718:	4619      	mov	r1, r3
   8171a:	4632      	mov	r2, r6
   8171c:	4e3b      	ldr	r6, [pc, #236]	; (8180c <prvTimerTask+0x154>)
   8171e:	47b0      	blx	r6
   81720:	b918      	cbnz	r0, 8172a <prvTimerTask+0x72>
   81722:	4b3b      	ldr	r3, [pc, #236]	; (81810 <prvTimerTask+0x158>)
   81724:	4798      	blx	r3
   81726:	bf00      	nop
   81728:	e7fd      	b.n	81726 <prvTimerTask+0x6e>
   8172a:	6a63      	ldr	r3, [r4, #36]	; 0x24
   8172c:	4620      	mov	r0, r4
   8172e:	4798      	blx	r3
   81730:	e00c      	b.n	8174c <prvTimerTask+0x94>
   81732:	2600      	movs	r6, #0
   81734:	6828      	ldr	r0, [r5, #0]
   81736:	1bf1      	subs	r1, r6, r7
   81738:	4b36      	ldr	r3, [pc, #216]	; (81814 <prvTimerTask+0x15c>)
   8173a:	4798      	blx	r3
   8173c:	4b31      	ldr	r3, [pc, #196]	; (81804 <prvTimerTask+0x14c>)
   8173e:	4798      	blx	r3
   81740:	b920      	cbnz	r0, 8174c <prvTimerTask+0x94>
   81742:	4b35      	ldr	r3, [pc, #212]	; (81818 <prvTimerTask+0x160>)
   81744:	4798      	blx	r3
   81746:	e001      	b.n	8174c <prvTimerTask+0x94>
   81748:	4b2e      	ldr	r3, [pc, #184]	; (81804 <prvTimerTask+0x14c>)
   8174a:	4798      	blx	r3
   8174c:	a802      	add	r0, sp, #8
   8174e:	4b2c      	ldr	r3, [pc, #176]	; (81800 <prvTimerTask+0x148>)
   81750:	4798      	blx	r3
   81752:	4607      	mov	r7, r0
   81754:	4e31      	ldr	r6, [pc, #196]	; (8181c <prvTimerTask+0x164>)
   81756:	f8df 90b0 	ldr.w	r9, [pc, #176]	; 81808 <prvTimerTask+0x150>
   8175a:	e038      	b.n	817ce <prvTimerTask+0x116>
   8175c:	9c05      	ldr	r4, [sp, #20]
   8175e:	b11c      	cbz	r4, 81768 <prvTimerTask+0xb0>
   81760:	6963      	ldr	r3, [r4, #20]
   81762:	b10b      	cbz	r3, 81768 <prvTimerTask+0xb0>
   81764:	1d20      	adds	r0, r4, #4
   81766:	47c0      	blx	r8
   81768:	9b03      	ldr	r3, [sp, #12]
   8176a:	2b02      	cmp	r3, #2
   8176c:	d01f      	beq.n	817ae <prvTimerTask+0xf6>
   8176e:	2b03      	cmp	r3, #3
   81770:	d02a      	beq.n	817c8 <prvTimerTask+0x110>
   81772:	2b00      	cmp	r3, #0
   81774:	d12b      	bne.n	817ce <prvTimerTask+0x116>
   81776:	9b04      	ldr	r3, [sp, #16]
   81778:	69a1      	ldr	r1, [r4, #24]
   8177a:	4620      	mov	r0, r4
   8177c:	4419      	add	r1, r3
   8177e:	463a      	mov	r2, r7
   81780:	47c8      	blx	r9
   81782:	2801      	cmp	r0, #1
   81784:	d123      	bne.n	817ce <prvTimerTask+0x116>
   81786:	6a63      	ldr	r3, [r4, #36]	; 0x24
   81788:	4620      	mov	r0, r4
   8178a:	4798      	blx	r3
   8178c:	69e3      	ldr	r3, [r4, #28]
   8178e:	2b01      	cmp	r3, #1
   81790:	d11d      	bne.n	817ce <prvTimerTask+0x116>
   81792:	69a2      	ldr	r2, [r4, #24]
   81794:	2300      	movs	r3, #0
   81796:	9300      	str	r3, [sp, #0]
   81798:	4620      	mov	r0, r4
   8179a:	4619      	mov	r1, r3
   8179c:	9c04      	ldr	r4, [sp, #16]
   8179e:	4422      	add	r2, r4
   817a0:	4c1a      	ldr	r4, [pc, #104]	; (8180c <prvTimerTask+0x154>)
   817a2:	47a0      	blx	r4
   817a4:	b998      	cbnz	r0, 817ce <prvTimerTask+0x116>
   817a6:	4b1a      	ldr	r3, [pc, #104]	; (81810 <prvTimerTask+0x158>)
   817a8:	4798      	blx	r3
   817aa:	bf00      	nop
   817ac:	e7fd      	b.n	817aa <prvTimerTask+0xf2>
   817ae:	9904      	ldr	r1, [sp, #16]
   817b0:	61a1      	str	r1, [r4, #24]
   817b2:	b919      	cbnz	r1, 817bc <prvTimerTask+0x104>
   817b4:	4b16      	ldr	r3, [pc, #88]	; (81810 <prvTimerTask+0x158>)
   817b6:	4798      	blx	r3
   817b8:	bf00      	nop
   817ba:	e7fd      	b.n	817b8 <prvTimerTask+0x100>
   817bc:	4620      	mov	r0, r4
   817be:	4439      	add	r1, r7
   817c0:	463a      	mov	r2, r7
   817c2:	463b      	mov	r3, r7
   817c4:	47c8      	blx	r9
   817c6:	e002      	b.n	817ce <prvTimerTask+0x116>
   817c8:	4620      	mov	r0, r4
   817ca:	4b15      	ldr	r3, [pc, #84]	; (81820 <prvTimerTask+0x168>)
   817cc:	4798      	blx	r3
   817ce:	6828      	ldr	r0, [r5, #0]
   817d0:	a903      	add	r1, sp, #12
   817d2:	2200      	movs	r2, #0
   817d4:	4613      	mov	r3, r2
   817d6:	47b0      	blx	r6
   817d8:	2800      	cmp	r0, #0
   817da:	d1bf      	bne.n	8175c <prvTimerTask+0xa4>
   817dc:	e772      	b.n	816c4 <prvTimerTask+0xc>
   817de:	4b07      	ldr	r3, [pc, #28]	; (817fc <prvTimerTask+0x144>)
   817e0:	4798      	blx	r3
   817e2:	a803      	add	r0, sp, #12
   817e4:	4b06      	ldr	r3, [pc, #24]	; (81800 <prvTimerTask+0x148>)
   817e6:	4798      	blx	r3
   817e8:	4607      	mov	r7, r0
   817ea:	9b03      	ldr	r3, [sp, #12]
   817ec:	2b00      	cmp	r3, #0
   817ee:	d0a0      	beq.n	81732 <prvTimerTask+0x7a>
   817f0:	e7aa      	b.n	81748 <prvTimerTask+0x90>
   817f2:	bf00      	nop
   817f4:	2007a6c4 	.word	0x2007a6c4
   817f8:	2007a694 	.word	0x2007a694
   817fc:	00080e1d 	.word	0x00080e1d
   81800:	00081605 	.word	0x00081605
   81804:	00080f6d 	.word	0x00080f6d
   81808:	000814bd 	.word	0x000814bd
   8180c:	000815b1 	.word	0x000815b1
   81810:	000803b5 	.word	0x000803b5
   81814:	00080b0d 	.word	0x00080b0d
   81818:	000803a5 	.word	0x000803a5
   8181c:	000809b1 	.word	0x000809b1
   81820:	000805d9 	.word	0x000805d9
   81824:	0008032d 	.word	0x0008032d

00081828 <sysclk_init>:
   81828:	b510      	push	{r4, lr}
   8182a:	480e      	ldr	r0, [pc, #56]	; (81864 <sysclk_init+0x3c>)
   8182c:	4b0e      	ldr	r3, [pc, #56]	; (81868 <sysclk_init+0x40>)
   8182e:	4798      	blx	r3
   81830:	2000      	movs	r0, #0
   81832:	213e      	movs	r1, #62	; 0x3e
   81834:	4b0d      	ldr	r3, [pc, #52]	; (8186c <sysclk_init+0x44>)
   81836:	4798      	blx	r3
   81838:	4c0d      	ldr	r4, [pc, #52]	; (81870 <sysclk_init+0x48>)
   8183a:	47a0      	blx	r4
   8183c:	2800      	cmp	r0, #0
   8183e:	d0fc      	beq.n	8183a <sysclk_init+0x12>
   81840:	4b0c      	ldr	r3, [pc, #48]	; (81874 <sysclk_init+0x4c>)
   81842:	4798      	blx	r3
   81844:	4a0c      	ldr	r2, [pc, #48]	; (81878 <sysclk_init+0x50>)
   81846:	4b0d      	ldr	r3, [pc, #52]	; (8187c <sysclk_init+0x54>)
   81848:	629a      	str	r2, [r3, #40]	; 0x28
   8184a:	4c0d      	ldr	r4, [pc, #52]	; (81880 <sysclk_init+0x58>)
   8184c:	47a0      	blx	r4
   8184e:	2800      	cmp	r0, #0
   81850:	d0fc      	beq.n	8184c <sysclk_init+0x24>
   81852:	2010      	movs	r0, #16
   81854:	4b0b      	ldr	r3, [pc, #44]	; (81884 <sysclk_init+0x5c>)
   81856:	4798      	blx	r3
   81858:	4b0b      	ldr	r3, [pc, #44]	; (81888 <sysclk_init+0x60>)
   8185a:	4798      	blx	r3
   8185c:	4801      	ldr	r0, [pc, #4]	; (81864 <sysclk_init+0x3c>)
   8185e:	4b02      	ldr	r3, [pc, #8]	; (81868 <sysclk_init+0x40>)
   81860:	4798      	blx	r3
   81862:	bd10      	pop	{r4, pc}
   81864:	0501bd00 	.word	0x0501bd00
   81868:	200700a5 	.word	0x200700a5
   8186c:	00081ccd 	.word	0x00081ccd
   81870:	00081d21 	.word	0x00081d21
   81874:	00081d31 	.word	0x00081d31
   81878:	200d3f01 	.word	0x200d3f01
   8187c:	400e0600 	.word	0x400e0600
   81880:	00081d41 	.word	0x00081d41
   81884:	00081c65 	.word	0x00081c65
   81888:	00081e59 	.word	0x00081e59

0008188c <board_init>:
   8188c:	b510      	push	{r4, lr}
   8188e:	f44f 4200 	mov.w	r2, #32768	; 0x8000
   81892:	4b16      	ldr	r3, [pc, #88]	; (818ec <board_init+0x60>)
   81894:	605a      	str	r2, [r3, #4]
   81896:	200b      	movs	r0, #11
   81898:	4c15      	ldr	r4, [pc, #84]	; (818f0 <board_init+0x64>)
   8189a:	47a0      	blx	r4
   8189c:	200c      	movs	r0, #12
   8189e:	47a0      	blx	r4
   818a0:	200d      	movs	r0, #13
   818a2:	47a0      	blx	r4
   818a4:	200e      	movs	r0, #14
   818a6:	47a0      	blx	r4
   818a8:	203b      	movs	r0, #59	; 0x3b
   818aa:	f04f 5160 	mov.w	r1, #939524096	; 0x38000000
   818ae:	4c11      	ldr	r4, [pc, #68]	; (818f4 <board_init+0x68>)
   818b0:	47a0      	blx	r4
   818b2:	2055      	movs	r0, #85	; 0x55
   818b4:	f04f 5160 	mov.w	r1, #939524096	; 0x38000000
   818b8:	47a0      	blx	r4
   818ba:	2056      	movs	r0, #86	; 0x56
   818bc:	f04f 5160 	mov.w	r1, #939524096	; 0x38000000
   818c0:	47a0      	blx	r4
   818c2:	2068      	movs	r0, #104	; 0x68
   818c4:	490c      	ldr	r1, [pc, #48]	; (818f8 <board_init+0x6c>)
   818c6:	47a0      	blx	r4
   818c8:	205c      	movs	r0, #92	; 0x5c
   818ca:	490c      	ldr	r1, [pc, #48]	; (818fc <board_init+0x70>)
   818cc:	47a0      	blx	r4
   818ce:	480c      	ldr	r0, [pc, #48]	; (81900 <board_init+0x74>)
   818d0:	f44f 7140 	mov.w	r1, #768	; 0x300
   818d4:	4a0b      	ldr	r2, [pc, #44]	; (81904 <board_init+0x78>)
   818d6:	4b0c      	ldr	r3, [pc, #48]	; (81908 <board_init+0x7c>)
   818d8:	4798      	blx	r3
   818da:	202b      	movs	r0, #43	; 0x2b
   818dc:	f04f 6100 	mov.w	r1, #134217728	; 0x8000000
   818e0:	47a0      	blx	r4
   818e2:	202a      	movs	r0, #42	; 0x2a
   818e4:	f04f 6100 	mov.w	r1, #134217728	; 0x8000000
   818e8:	47a0      	blx	r4
   818ea:	bd10      	pop	{r4, pc}
   818ec:	400e1a50 	.word	0x400e1a50
   818f0:	00081d51 	.word	0x00081d51
   818f4:	000819e5 	.word	0x000819e5
   818f8:	28000079 	.word	0x28000079
   818fc:	28000001 	.word	0x28000001
   81900:	400e0e00 	.word	0x400e0e00
   81904:	08000001 	.word	0x08000001
   81908:	00081ab9 	.word	0x00081ab9

0008190c <pio_set_peripheral>:
   8190c:	6442      	str	r2, [r0, #68]	; 0x44
   8190e:	f1b1 5f80 	cmp.w	r1, #268435456	; 0x10000000
   81912:	d016      	beq.n	81942 <pio_set_peripheral+0x36>
   81914:	d804      	bhi.n	81920 <pio_set_peripheral+0x14>
   81916:	b1c1      	cbz	r1, 8194a <pio_set_peripheral+0x3e>
   81918:	f1b1 6f00 	cmp.w	r1, #134217728	; 0x8000000
   8191c:	d00a      	beq.n	81934 <pio_set_peripheral+0x28>
   8191e:	e013      	b.n	81948 <pio_set_peripheral+0x3c>
   81920:	f1b1 5f40 	cmp.w	r1, #805306368	; 0x30000000
   81924:	d011      	beq.n	8194a <pio_set_peripheral+0x3e>
   81926:	f1b1 5f60 	cmp.w	r1, #939524096	; 0x38000000
   8192a:	d00e      	beq.n	8194a <pio_set_peripheral+0x3e>
   8192c:	f1b1 5f20 	cmp.w	r1, #671088640	; 0x28000000
   81930:	d10a      	bne.n	81948 <pio_set_peripheral+0x3c>
   81932:	4770      	bx	lr
   81934:	6f03      	ldr	r3, [r0, #112]	; 0x70
   81936:	6f01      	ldr	r1, [r0, #112]	; 0x70
   81938:	400b      	ands	r3, r1
   8193a:	ea23 0302 	bic.w	r3, r3, r2
   8193e:	6703      	str	r3, [r0, #112]	; 0x70
   81940:	e002      	b.n	81948 <pio_set_peripheral+0x3c>
   81942:	6f03      	ldr	r3, [r0, #112]	; 0x70
   81944:	4313      	orrs	r3, r2
   81946:	6703      	str	r3, [r0, #112]	; 0x70
   81948:	6042      	str	r2, [r0, #4]
   8194a:	4770      	bx	lr

0008194c <pio_set_input>:
   8194c:	6441      	str	r1, [r0, #68]	; 0x44
   8194e:	f012 0f01 	tst.w	r2, #1
   81952:	bf14      	ite	ne
   81954:	6641      	strne	r1, [r0, #100]	; 0x64
   81956:	6601      	streq	r1, [r0, #96]	; 0x60
   81958:	f012 0f0a 	tst.w	r2, #10
   8195c:	bf14      	ite	ne
   8195e:	6201      	strne	r1, [r0, #32]
   81960:	6241      	streq	r1, [r0, #36]	; 0x24
   81962:	f012 0f02 	tst.w	r2, #2
   81966:	d002      	beq.n	8196e <pio_set_input+0x22>
   81968:	f8c0 1080 	str.w	r1, [r0, #128]	; 0x80
   8196c:	e004      	b.n	81978 <pio_set_input+0x2c>
   8196e:	f012 0f08 	tst.w	r2, #8
   81972:	bf18      	it	ne
   81974:	f8c0 1084 	strne.w	r1, [r0, #132]	; 0x84
   81978:	6141      	str	r1, [r0, #20]
   8197a:	6001      	str	r1, [r0, #0]
   8197c:	4770      	bx	lr
   8197e:	bf00      	nop

00081980 <pio_set_output>:
   81980:	b410      	push	{r4}
   81982:	6441      	str	r1, [r0, #68]	; 0x44
   81984:	9c01      	ldr	r4, [sp, #4]
   81986:	b10c      	cbz	r4, 8198c <pio_set_output+0xc>
   81988:	6641      	str	r1, [r0, #100]	; 0x64
   8198a:	e000      	b.n	8198e <pio_set_output+0xe>
   8198c:	6601      	str	r1, [r0, #96]	; 0x60
   8198e:	b10b      	cbz	r3, 81994 <pio_set_output+0x14>
   81990:	6501      	str	r1, [r0, #80]	; 0x50
   81992:	e000      	b.n	81996 <pio_set_output+0x16>
   81994:	6541      	str	r1, [r0, #84]	; 0x54
   81996:	b10a      	cbz	r2, 8199c <pio_set_output+0x1c>
   81998:	6301      	str	r1, [r0, #48]	; 0x30
   8199a:	e000      	b.n	8199e <pio_set_output+0x1e>
   8199c:	6341      	str	r1, [r0, #52]	; 0x34
   8199e:	6101      	str	r1, [r0, #16]
   819a0:	6001      	str	r1, [r0, #0]
   819a2:	f85d 4b04 	ldr.w	r4, [sp], #4
   819a6:	4770      	bx	lr

000819a8 <pio_configure_interrupt>:
   819a8:	f012 0f10 	tst.w	r2, #16
   819ac:	d010      	beq.n	819d0 <pio_configure_interrupt+0x28>
   819ae:	f8c0 10b0 	str.w	r1, [r0, #176]	; 0xb0
   819b2:	f012 0f20 	tst.w	r2, #32
   819b6:	bf14      	ite	ne
   819b8:	f8c0 10d4 	strne.w	r1, [r0, #212]	; 0xd4
   819bc:	f8c0 10d0 	streq.w	r1, [r0, #208]	; 0xd0
   819c0:	f012 0f40 	tst.w	r2, #64	; 0x40
   819c4:	bf14      	ite	ne
   819c6:	f8c0 10c0 	strne.w	r1, [r0, #192]	; 0xc0
   819ca:	f8c0 10c4 	streq.w	r1, [r0, #196]	; 0xc4
   819ce:	4770      	bx	lr
   819d0:	f8c0 10b4 	str.w	r1, [r0, #180]	; 0xb4
   819d4:	4770      	bx	lr
   819d6:	bf00      	nop

000819d8 <pio_enable_interrupt>:
   819d8:	6401      	str	r1, [r0, #64]	; 0x40
   819da:	4770      	bx	lr

000819dc <pio_get_interrupt_status>:
   819dc:	6cc0      	ldr	r0, [r0, #76]	; 0x4c
   819de:	4770      	bx	lr

000819e0 <pio_get_interrupt_mask>:
   819e0:	6c80      	ldr	r0, [r0, #72]	; 0x48
   819e2:	4770      	bx	lr

000819e4 <pio_configure_pin>:
   819e4:	b570      	push	{r4, r5, r6, lr}
   819e6:	b082      	sub	sp, #8
   819e8:	460d      	mov	r5, r1
   819ea:	0943      	lsrs	r3, r0, #5
   819ec:	f503 1300 	add.w	r3, r3, #2097152	; 0x200000
   819f0:	f203 7307 	addw	r3, r3, #1799	; 0x707
   819f4:	025c      	lsls	r4, r3, #9
   819f6:	f001 43f0 	and.w	r3, r1, #2013265920	; 0x78000000
   819fa:	f1b3 5f20 	cmp.w	r3, #671088640	; 0x28000000
   819fe:	d030      	beq.n	81a62 <pio_configure_pin+0x7e>
   81a00:	d806      	bhi.n	81a10 <pio_configure_pin+0x2c>
   81a02:	f1b3 6f00 	cmp.w	r3, #134217728	; 0x8000000
   81a06:	d00a      	beq.n	81a1e <pio_configure_pin+0x3a>
   81a08:	f1b3 5f80 	cmp.w	r3, #268435456	; 0x10000000
   81a0c:	d018      	beq.n	81a40 <pio_configure_pin+0x5c>
   81a0e:	e049      	b.n	81aa4 <pio_configure_pin+0xc0>
   81a10:	f1b3 5f40 	cmp.w	r3, #805306368	; 0x30000000
   81a14:	d030      	beq.n	81a78 <pio_configure_pin+0x94>
   81a16:	f1b3 5f60 	cmp.w	r3, #939524096	; 0x38000000
   81a1a:	d02d      	beq.n	81a78 <pio_configure_pin+0x94>
   81a1c:	e042      	b.n	81aa4 <pio_configure_pin+0xc0>
   81a1e:	f000 001f 	and.w	r0, r0, #31
   81a22:	2601      	movs	r6, #1
   81a24:	4086      	lsls	r6, r0
   81a26:	4620      	mov	r0, r4
   81a28:	f04f 6100 	mov.w	r1, #134217728	; 0x8000000
   81a2c:	4632      	mov	r2, r6
   81a2e:	4b1f      	ldr	r3, [pc, #124]	; (81aac <pio_configure_pin+0xc8>)
   81a30:	4798      	blx	r3
   81a32:	f015 0f01 	tst.w	r5, #1
   81a36:	bf14      	ite	ne
   81a38:	6666      	strne	r6, [r4, #100]	; 0x64
   81a3a:	6626      	streq	r6, [r4, #96]	; 0x60
   81a3c:	2001      	movs	r0, #1
   81a3e:	e032      	b.n	81aa6 <pio_configure_pin+0xc2>
   81a40:	f000 001f 	and.w	r0, r0, #31
   81a44:	2601      	movs	r6, #1
   81a46:	4086      	lsls	r6, r0
   81a48:	4620      	mov	r0, r4
   81a4a:	f04f 5180 	mov.w	r1, #268435456	; 0x10000000
   81a4e:	4632      	mov	r2, r6
   81a50:	4b16      	ldr	r3, [pc, #88]	; (81aac <pio_configure_pin+0xc8>)
   81a52:	4798      	blx	r3
   81a54:	f015 0f01 	tst.w	r5, #1
   81a58:	bf14      	ite	ne
   81a5a:	6666      	strne	r6, [r4, #100]	; 0x64
   81a5c:	6626      	streq	r6, [r4, #96]	; 0x60
   81a5e:	2001      	movs	r0, #1
   81a60:	e021      	b.n	81aa6 <pio_configure_pin+0xc2>
   81a62:	f000 031f 	and.w	r3, r0, #31
   81a66:	2601      	movs	r6, #1
   81a68:	4620      	mov	r0, r4
   81a6a:	fa06 f103 	lsl.w	r1, r6, r3
   81a6e:	462a      	mov	r2, r5
   81a70:	4b0f      	ldr	r3, [pc, #60]	; (81ab0 <pio_configure_pin+0xcc>)
   81a72:	4798      	blx	r3
   81a74:	4630      	mov	r0, r6
   81a76:	e016      	b.n	81aa6 <pio_configure_pin+0xc2>
   81a78:	f000 031f 	and.w	r3, r0, #31
   81a7c:	2601      	movs	r6, #1
   81a7e:	f005 5260 	and.w	r2, r5, #939524096	; 0x38000000
   81a82:	ea05 0106 	and.w	r1, r5, r6
   81a86:	9100      	str	r1, [sp, #0]
   81a88:	4620      	mov	r0, r4
   81a8a:	fa06 f103 	lsl.w	r1, r6, r3
   81a8e:	f1b2 5f60 	cmp.w	r2, #939524096	; 0x38000000
   81a92:	bf14      	ite	ne
   81a94:	2200      	movne	r2, #0
   81a96:	2201      	moveq	r2, #1
   81a98:	f3c5 0380 	ubfx	r3, r5, #2, #1
   81a9c:	4c05      	ldr	r4, [pc, #20]	; (81ab4 <pio_configure_pin+0xd0>)
   81a9e:	47a0      	blx	r4
   81aa0:	4630      	mov	r0, r6
   81aa2:	e000      	b.n	81aa6 <pio_configure_pin+0xc2>
   81aa4:	2000      	movs	r0, #0
   81aa6:	b002      	add	sp, #8
   81aa8:	bd70      	pop	{r4, r5, r6, pc}
   81aaa:	bf00      	nop
   81aac:	0008190d 	.word	0x0008190d
   81ab0:	0008194d 	.word	0x0008194d
   81ab4:	00081981 	.word	0x00081981

00081ab8 <pio_configure_pin_group>:
   81ab8:	b570      	push	{r4, r5, r6, lr}
   81aba:	b082      	sub	sp, #8
   81abc:	4606      	mov	r6, r0
   81abe:	460d      	mov	r5, r1
   81ac0:	4614      	mov	r4, r2
   81ac2:	f002 43f0 	and.w	r3, r2, #2013265920	; 0x78000000
   81ac6:	f1b3 5f20 	cmp.w	r3, #671088640	; 0x28000000
   81aca:	d026      	beq.n	81b1a <pio_configure_pin_group+0x62>
   81acc:	d806      	bhi.n	81adc <pio_configure_pin_group+0x24>
   81ace:	f1b3 6f00 	cmp.w	r3, #134217728	; 0x8000000
   81ad2:	d00a      	beq.n	81aea <pio_configure_pin_group+0x32>
   81ad4:	f1b3 5f80 	cmp.w	r3, #268435456	; 0x10000000
   81ad8:	d013      	beq.n	81b02 <pio_configure_pin_group+0x4a>
   81ada:	e034      	b.n	81b46 <pio_configure_pin_group+0x8e>
   81adc:	f1b3 5f40 	cmp.w	r3, #805306368	; 0x30000000
   81ae0:	d01f      	beq.n	81b22 <pio_configure_pin_group+0x6a>
   81ae2:	f1b3 5f60 	cmp.w	r3, #939524096	; 0x38000000
   81ae6:	d01c      	beq.n	81b22 <pio_configure_pin_group+0x6a>
   81ae8:	e02d      	b.n	81b46 <pio_configure_pin_group+0x8e>
   81aea:	f04f 6100 	mov.w	r1, #134217728	; 0x8000000
   81aee:	462a      	mov	r2, r5
   81af0:	4b16      	ldr	r3, [pc, #88]	; (81b4c <pio_configure_pin_group+0x94>)
   81af2:	4798      	blx	r3
   81af4:	f014 0f01 	tst.w	r4, #1
   81af8:	bf14      	ite	ne
   81afa:	6675      	strne	r5, [r6, #100]	; 0x64
   81afc:	6635      	streq	r5, [r6, #96]	; 0x60
   81afe:	2001      	movs	r0, #1
   81b00:	e022      	b.n	81b48 <pio_configure_pin_group+0x90>
   81b02:	f04f 5180 	mov.w	r1, #268435456	; 0x10000000
   81b06:	462a      	mov	r2, r5
   81b08:	4b10      	ldr	r3, [pc, #64]	; (81b4c <pio_configure_pin_group+0x94>)
   81b0a:	4798      	blx	r3
   81b0c:	f014 0f01 	tst.w	r4, #1
   81b10:	bf14      	ite	ne
   81b12:	6675      	strne	r5, [r6, #100]	; 0x64
   81b14:	6635      	streq	r5, [r6, #96]	; 0x60
   81b16:	2001      	movs	r0, #1
   81b18:	e016      	b.n	81b48 <pio_configure_pin_group+0x90>
   81b1a:	4b0d      	ldr	r3, [pc, #52]	; (81b50 <pio_configure_pin_group+0x98>)
   81b1c:	4798      	blx	r3
   81b1e:	2001      	movs	r0, #1
   81b20:	e012      	b.n	81b48 <pio_configure_pin_group+0x90>
   81b22:	f004 5260 	and.w	r2, r4, #939524096	; 0x38000000
   81b26:	f004 0301 	and.w	r3, r4, #1
   81b2a:	9300      	str	r3, [sp, #0]
   81b2c:	4630      	mov	r0, r6
   81b2e:	4629      	mov	r1, r5
   81b30:	f1b2 5f60 	cmp.w	r2, #939524096	; 0x38000000
   81b34:	bf14      	ite	ne
   81b36:	2200      	movne	r2, #0
   81b38:	2201      	moveq	r2, #1
   81b3a:	f3c4 0380 	ubfx	r3, r4, #2, #1
   81b3e:	4c05      	ldr	r4, [pc, #20]	; (81b54 <pio_configure_pin_group+0x9c>)
   81b40:	47a0      	blx	r4
   81b42:	2001      	movs	r0, #1
   81b44:	e000      	b.n	81b48 <pio_configure_pin_group+0x90>
   81b46:	2000      	movs	r0, #0
   81b48:	b002      	add	sp, #8
   81b4a:	bd70      	pop	{r4, r5, r6, pc}
   81b4c:	0008190d 	.word	0x0008190d
   81b50:	0008194d 	.word	0x0008194d
   81b54:	00081981 	.word	0x00081981

00081b58 <pio_handler_process>:
   81b58:	e92d 41f0 	stmdb	sp!, {r4, r5, r6, r7, r8, lr}
   81b5c:	4604      	mov	r4, r0
   81b5e:	4688      	mov	r8, r1
   81b60:	4b0e      	ldr	r3, [pc, #56]	; (81b9c <pio_handler_process+0x44>)
   81b62:	4798      	blx	r3
   81b64:	4605      	mov	r5, r0
   81b66:	4620      	mov	r0, r4
   81b68:	4b0d      	ldr	r3, [pc, #52]	; (81ba0 <pio_handler_process+0x48>)
   81b6a:	4798      	blx	r3
   81b6c:	4005      	ands	r5, r0
   81b6e:	d013      	beq.n	81b98 <pio_handler_process+0x40>
   81b70:	4c0c      	ldr	r4, [pc, #48]	; (81ba4 <pio_handler_process+0x4c>)
   81b72:	f104 0660 	add.w	r6, r4, #96	; 0x60
   81b76:	6823      	ldr	r3, [r4, #0]
   81b78:	4543      	cmp	r3, r8
   81b7a:	d108      	bne.n	81b8e <pio_handler_process+0x36>
   81b7c:	6861      	ldr	r1, [r4, #4]
   81b7e:	4229      	tst	r1, r5
   81b80:	d005      	beq.n	81b8e <pio_handler_process+0x36>
   81b82:	68e3      	ldr	r3, [r4, #12]
   81b84:	4640      	mov	r0, r8
   81b86:	4798      	blx	r3
   81b88:	6863      	ldr	r3, [r4, #4]
   81b8a:	ea25 0503 	bic.w	r5, r5, r3
   81b8e:	42b4      	cmp	r4, r6
   81b90:	d002      	beq.n	81b98 <pio_handler_process+0x40>
   81b92:	3410      	adds	r4, #16
   81b94:	2d00      	cmp	r5, #0
   81b96:	d1ee      	bne.n	81b76 <pio_handler_process+0x1e>
   81b98:	e8bd 81f0 	ldmia.w	sp!, {r4, r5, r6, r7, r8, pc}
   81b9c:	000819dd 	.word	0x000819dd
   81ba0:	000819e1 	.word	0x000819e1
   81ba4:	2007a6d0 	.word	0x2007a6d0

00081ba8 <pio_handler_set>:
   81ba8:	b5f8      	push	{r3, r4, r5, r6, r7, lr}
   81baa:	4c17      	ldr	r4, [pc, #92]	; (81c08 <pio_handler_set+0x60>)
   81bac:	6827      	ldr	r7, [r4, #0]
   81bae:	2f06      	cmp	r7, #6
   81bb0:	d827      	bhi.n	81c02 <pio_handler_set+0x5a>
   81bb2:	f04f 0c00 	mov.w	ip, #0
   81bb6:	4664      	mov	r4, ip
   81bb8:	4e14      	ldr	r6, [pc, #80]	; (81c0c <pio_handler_set+0x64>)
   81bba:	0125      	lsls	r5, r4, #4
   81bbc:	eb06 0e05 	add.w	lr, r6, r5
   81bc0:	5975      	ldr	r5, [r6, r5]
   81bc2:	428d      	cmp	r5, r1
   81bc4:	d104      	bne.n	81bd0 <pio_handler_set+0x28>
   81bc6:	eb06 1504 	add.w	r5, r6, r4, lsl #4
   81bca:	686d      	ldr	r5, [r5, #4]
   81bcc:	4295      	cmp	r5, r2
   81bce:	d004      	beq.n	81bda <pio_handler_set+0x32>
   81bd0:	3401      	adds	r4, #1
   81bd2:	b2e4      	uxtb	r4, r4
   81bd4:	46a4      	mov	ip, r4
   81bd6:	42a7      	cmp	r7, r4
   81bd8:	d2ef      	bcs.n	81bba <pio_handler_set+0x12>
   81bda:	f8ce 1000 	str.w	r1, [lr]
   81bde:	f8ce 2004 	str.w	r2, [lr, #4]
   81be2:	f8ce 3008 	str.w	r3, [lr, #8]
   81be6:	9906      	ldr	r1, [sp, #24]
   81be8:	f8ce 100c 	str.w	r1, [lr, #12]
   81bec:	3701      	adds	r7, #1
   81bee:	4567      	cmp	r7, ip
   81bf0:	bf04      	itt	eq
   81bf2:	4905      	ldreq	r1, [pc, #20]	; (81c08 <pio_handler_set+0x60>)
   81bf4:	600f      	streq	r7, [r1, #0]
   81bf6:	4611      	mov	r1, r2
   81bf8:	461a      	mov	r2, r3
   81bfa:	4b05      	ldr	r3, [pc, #20]	; (81c10 <pio_handler_set+0x68>)
   81bfc:	4798      	blx	r3
   81bfe:	2000      	movs	r0, #0
   81c00:	bdf8      	pop	{r3, r4, r5, r6, r7, pc}
   81c02:	2001      	movs	r0, #1
   81c04:	bdf8      	pop	{r3, r4, r5, r6, r7, pc}
   81c06:	bf00      	nop
   81c08:	2007a6cc 	.word	0x2007a6cc
   81c0c:	2007a6d0 	.word	0x2007a6d0
   81c10:	000819a9 	.word	0x000819a9

00081c14 <PIOA_Handler>:
   81c14:	b508      	push	{r3, lr}
   81c16:	4802      	ldr	r0, [pc, #8]	; (81c20 <PIOA_Handler+0xc>)
   81c18:	210b      	movs	r1, #11
   81c1a:	4b02      	ldr	r3, [pc, #8]	; (81c24 <PIOA_Handler+0x10>)
   81c1c:	4798      	blx	r3
   81c1e:	bd08      	pop	{r3, pc}
   81c20:	400e0e00 	.word	0x400e0e00
   81c24:	00081b59 	.word	0x00081b59

00081c28 <PIOB_Handler>:
   81c28:	b508      	push	{r3, lr}
   81c2a:	4802      	ldr	r0, [pc, #8]	; (81c34 <PIOB_Handler+0xc>)
   81c2c:	210c      	movs	r1, #12
   81c2e:	4b02      	ldr	r3, [pc, #8]	; (81c38 <PIOB_Handler+0x10>)
   81c30:	4798      	blx	r3
   81c32:	bd08      	pop	{r3, pc}
   81c34:	400e1000 	.word	0x400e1000
   81c38:	00081b59 	.word	0x00081b59

00081c3c <PIOC_Handler>:
   81c3c:	b508      	push	{r3, lr}
   81c3e:	4802      	ldr	r0, [pc, #8]	; (81c48 <PIOC_Handler+0xc>)
   81c40:	210d      	movs	r1, #13
   81c42:	4b02      	ldr	r3, [pc, #8]	; (81c4c <PIOC_Handler+0x10>)
   81c44:	4798      	blx	r3
   81c46:	bd08      	pop	{r3, pc}
   81c48:	400e1200 	.word	0x400e1200
   81c4c:	00081b59 	.word	0x00081b59

00081c50 <PIOD_Handler>:
   81c50:	b508      	push	{r3, lr}
   81c52:	4802      	ldr	r0, [pc, #8]	; (81c5c <PIOD_Handler+0xc>)
   81c54:	210e      	movs	r1, #14
   81c56:	4b02      	ldr	r3, [pc, #8]	; (81c60 <PIOD_Handler+0x10>)
   81c58:	4798      	blx	r3
   81c5a:	bd08      	pop	{r3, pc}
   81c5c:	400e1400 	.word	0x400e1400
   81c60:	00081b59 	.word	0x00081b59

00081c64 <pmc_switch_mck_to_pllack>:
   81c64:	4a18      	ldr	r2, [pc, #96]	; (81cc8 <pmc_switch_mck_to_pllack+0x64>)
   81c66:	6b13      	ldr	r3, [r2, #48]	; 0x30
   81c68:	f023 0370 	bic.w	r3, r3, #112	; 0x70
   81c6c:	4318      	orrs	r0, r3
   81c6e:	6310      	str	r0, [r2, #48]	; 0x30
   81c70:	6e93      	ldr	r3, [r2, #104]	; 0x68
   81c72:	f013 0f08 	tst.w	r3, #8
   81c76:	d003      	beq.n	81c80 <pmc_switch_mck_to_pllack+0x1c>
   81c78:	e009      	b.n	81c8e <pmc_switch_mck_to_pllack+0x2a>
   81c7a:	3b01      	subs	r3, #1
   81c7c:	d103      	bne.n	81c86 <pmc_switch_mck_to_pllack+0x22>
   81c7e:	e01e      	b.n	81cbe <pmc_switch_mck_to_pllack+0x5a>
   81c80:	f44f 6300 	mov.w	r3, #2048	; 0x800
   81c84:	4910      	ldr	r1, [pc, #64]	; (81cc8 <pmc_switch_mck_to_pllack+0x64>)
   81c86:	6e8a      	ldr	r2, [r1, #104]	; 0x68
   81c88:	f012 0f08 	tst.w	r2, #8
   81c8c:	d0f5      	beq.n	81c7a <pmc_switch_mck_to_pllack+0x16>
   81c8e:	4a0e      	ldr	r2, [pc, #56]	; (81cc8 <pmc_switch_mck_to_pllack+0x64>)
   81c90:	6b13      	ldr	r3, [r2, #48]	; 0x30
   81c92:	f023 0303 	bic.w	r3, r3, #3
   81c96:	f043 0302 	orr.w	r3, r3, #2
   81c9a:	6313      	str	r3, [r2, #48]	; 0x30
   81c9c:	6e90      	ldr	r0, [r2, #104]	; 0x68
   81c9e:	f010 0008 	ands.w	r0, r0, #8
   81ca2:	d004      	beq.n	81cae <pmc_switch_mck_to_pllack+0x4a>
   81ca4:	2000      	movs	r0, #0
   81ca6:	4770      	bx	lr
   81ca8:	3b01      	subs	r3, #1
   81caa:	d103      	bne.n	81cb4 <pmc_switch_mck_to_pllack+0x50>
   81cac:	e009      	b.n	81cc2 <pmc_switch_mck_to_pllack+0x5e>
   81cae:	f44f 6300 	mov.w	r3, #2048	; 0x800
   81cb2:	4905      	ldr	r1, [pc, #20]	; (81cc8 <pmc_switch_mck_to_pllack+0x64>)
   81cb4:	6e8a      	ldr	r2, [r1, #104]	; 0x68
   81cb6:	f012 0f08 	tst.w	r2, #8
   81cba:	d0f5      	beq.n	81ca8 <pmc_switch_mck_to_pllack+0x44>
   81cbc:	4770      	bx	lr
   81cbe:	2001      	movs	r0, #1
   81cc0:	4770      	bx	lr
   81cc2:	2001      	movs	r0, #1
   81cc4:	4770      	bx	lr
   81cc6:	bf00      	nop
   81cc8:	400e0600 	.word	0x400e0600

00081ccc <pmc_switch_mainck_to_xtal>:
   81ccc:	b138      	cbz	r0, 81cde <pmc_switch_mainck_to_xtal+0x12>
   81cce:	4911      	ldr	r1, [pc, #68]	; (81d14 <pmc_switch_mainck_to_xtal+0x48>)
   81cd0:	6a0b      	ldr	r3, [r1, #32]
   81cd2:	4a11      	ldr	r2, [pc, #68]	; (81d18 <pmc_switch_mainck_to_xtal+0x4c>)
   81cd4:	401a      	ands	r2, r3
   81cd6:	4b11      	ldr	r3, [pc, #68]	; (81d1c <pmc_switch_mainck_to_xtal+0x50>)
   81cd8:	4313      	orrs	r3, r2
   81cda:	620b      	str	r3, [r1, #32]
   81cdc:	4770      	bx	lr
   81cde:	4a0d      	ldr	r2, [pc, #52]	; (81d14 <pmc_switch_mainck_to_xtal+0x48>)
   81ce0:	6a13      	ldr	r3, [r2, #32]
   81ce2:	f423 135c 	bic.w	r3, r3, #3604480	; 0x370000
   81ce6:	f023 0303 	bic.w	r3, r3, #3
   81cea:	f443 135c 	orr.w	r3, r3, #3604480	; 0x370000
   81cee:	f043 0301 	orr.w	r3, r3, #1
   81cf2:	0209      	lsls	r1, r1, #8
   81cf4:	b289      	uxth	r1, r1
   81cf6:	430b      	orrs	r3, r1
   81cf8:	6213      	str	r3, [r2, #32]
   81cfa:	6e93      	ldr	r3, [r2, #104]	; 0x68
   81cfc:	f013 0f01 	tst.w	r3, #1
   81d00:	d0fb      	beq.n	81cfa <pmc_switch_mainck_to_xtal+0x2e>
   81d02:	4a04      	ldr	r2, [pc, #16]	; (81d14 <pmc_switch_mainck_to_xtal+0x48>)
   81d04:	6a13      	ldr	r3, [r2, #32]
   81d06:	f043 739b 	orr.w	r3, r3, #20316160	; 0x1360000
   81d0a:	f443 3380 	orr.w	r3, r3, #65536	; 0x10000
   81d0e:	6213      	str	r3, [r2, #32]
   81d10:	4770      	bx	lr
   81d12:	bf00      	nop
   81d14:	400e0600 	.word	0x400e0600
   81d18:	fec8fffc 	.word	0xfec8fffc
   81d1c:	01370002 	.word	0x01370002

00081d20 <pmc_osc_is_ready_mainck>:
   81d20:	4b02      	ldr	r3, [pc, #8]	; (81d2c <pmc_osc_is_ready_mainck+0xc>)
   81d22:	6e98      	ldr	r0, [r3, #104]	; 0x68
   81d24:	f400 3080 	and.w	r0, r0, #65536	; 0x10000
   81d28:	4770      	bx	lr
   81d2a:	bf00      	nop
   81d2c:	400e0600 	.word	0x400e0600

00081d30 <pmc_disable_pllack>:
   81d30:	f04f 5200 	mov.w	r2, #536870912	; 0x20000000
   81d34:	4b01      	ldr	r3, [pc, #4]	; (81d3c <pmc_disable_pllack+0xc>)
   81d36:	629a      	str	r2, [r3, #40]	; 0x28
   81d38:	4770      	bx	lr
   81d3a:	bf00      	nop
   81d3c:	400e0600 	.word	0x400e0600

00081d40 <pmc_is_locked_pllack>:
   81d40:	4b02      	ldr	r3, [pc, #8]	; (81d4c <pmc_is_locked_pllack+0xc>)
   81d42:	6e98      	ldr	r0, [r3, #104]	; 0x68
   81d44:	f000 0002 	and.w	r0, r0, #2
   81d48:	4770      	bx	lr
   81d4a:	bf00      	nop
   81d4c:	400e0600 	.word	0x400e0600

00081d50 <pmc_enable_periph_clk>:
   81d50:	282c      	cmp	r0, #44	; 0x2c
   81d52:	d81e      	bhi.n	81d92 <pmc_enable_periph_clk+0x42>
   81d54:	281f      	cmp	r0, #31
   81d56:	d80c      	bhi.n	81d72 <pmc_enable_periph_clk+0x22>
   81d58:	4b11      	ldr	r3, [pc, #68]	; (81da0 <pmc_enable_periph_clk+0x50>)
   81d5a:	699a      	ldr	r2, [r3, #24]
   81d5c:	2301      	movs	r3, #1
   81d5e:	4083      	lsls	r3, r0
   81d60:	401a      	ands	r2, r3
   81d62:	4293      	cmp	r3, r2
   81d64:	d017      	beq.n	81d96 <pmc_enable_periph_clk+0x46>
   81d66:	2301      	movs	r3, #1
   81d68:	4083      	lsls	r3, r0
   81d6a:	4a0d      	ldr	r2, [pc, #52]	; (81da0 <pmc_enable_periph_clk+0x50>)
   81d6c:	6113      	str	r3, [r2, #16]
   81d6e:	2000      	movs	r0, #0
   81d70:	4770      	bx	lr
   81d72:	4b0b      	ldr	r3, [pc, #44]	; (81da0 <pmc_enable_periph_clk+0x50>)
   81d74:	f8d3 2108 	ldr.w	r2, [r3, #264]	; 0x108
   81d78:	3820      	subs	r0, #32
   81d7a:	2301      	movs	r3, #1
   81d7c:	4083      	lsls	r3, r0
   81d7e:	401a      	ands	r2, r3
   81d80:	4293      	cmp	r3, r2
   81d82:	d00a      	beq.n	81d9a <pmc_enable_periph_clk+0x4a>
   81d84:	2301      	movs	r3, #1
   81d86:	4083      	lsls	r3, r0
   81d88:	4a05      	ldr	r2, [pc, #20]	; (81da0 <pmc_enable_periph_clk+0x50>)
   81d8a:	f8c2 3100 	str.w	r3, [r2, #256]	; 0x100
   81d8e:	2000      	movs	r0, #0
   81d90:	4770      	bx	lr
   81d92:	2001      	movs	r0, #1
   81d94:	4770      	bx	lr
   81d96:	2000      	movs	r0, #0
   81d98:	4770      	bx	lr
   81d9a:	2000      	movs	r0, #0
   81d9c:	4770      	bx	lr
   81d9e:	bf00      	nop
   81da0:	400e0600 	.word	0x400e0600

00081da4 <Dummy_Handler>:
   81da4:	e7fe      	b.n	81da4 <Dummy_Handler>
   81da6:	bf00      	nop

00081da8 <Reset_Handler>:
   81da8:	b508      	push	{r3, lr}
   81daa:	4b1f      	ldr	r3, [pc, #124]	; (81e28 <Reset_Handler+0x80>)
   81dac:	4a1f      	ldr	r2, [pc, #124]	; (81e2c <Reset_Handler+0x84>)
   81dae:	429a      	cmp	r2, r3
   81db0:	d003      	beq.n	81dba <Reset_Handler+0x12>
   81db2:	4b1f      	ldr	r3, [pc, #124]	; (81e30 <Reset_Handler+0x88>)
   81db4:	4a1c      	ldr	r2, [pc, #112]	; (81e28 <Reset_Handler+0x80>)
   81db6:	429a      	cmp	r2, r3
   81db8:	d304      	bcc.n	81dc4 <Reset_Handler+0x1c>
   81dba:	4b1e      	ldr	r3, [pc, #120]	; (81e34 <Reset_Handler+0x8c>)
   81dbc:	4a1e      	ldr	r2, [pc, #120]	; (81e38 <Reset_Handler+0x90>)
   81dbe:	429a      	cmp	r2, r3
   81dc0:	d310      	bcc.n	81de4 <Reset_Handler+0x3c>
   81dc2:	e01b      	b.n	81dfc <Reset_Handler+0x54>
   81dc4:	4918      	ldr	r1, [pc, #96]	; (81e28 <Reset_Handler+0x80>)
   81dc6:	1d0a      	adds	r2, r1, #4
   81dc8:	4b1c      	ldr	r3, [pc, #112]	; (81e3c <Reset_Handler+0x94>)
   81dca:	1a9b      	subs	r3, r3, r2
   81dcc:	f023 0303 	bic.w	r3, r3, #3
   81dd0:	3304      	adds	r3, #4
   81dd2:	4a16      	ldr	r2, [pc, #88]	; (81e2c <Reset_Handler+0x84>)
   81dd4:	4413      	add	r3, r2
   81dd6:	f852 0b04 	ldr.w	r0, [r2], #4
   81dda:	f841 0b04 	str.w	r0, [r1], #4
   81dde:	429a      	cmp	r2, r3
   81de0:	d1f9      	bne.n	81dd6 <Reset_Handler+0x2e>
   81de2:	e7ea      	b.n	81dba <Reset_Handler+0x12>
   81de4:	4b16      	ldr	r3, [pc, #88]	; (81e40 <Reset_Handler+0x98>)
   81de6:	4a17      	ldr	r2, [pc, #92]	; (81e44 <Reset_Handler+0x9c>)
   81de8:	1ad2      	subs	r2, r2, r3
   81dea:	f022 0203 	bic.w	r2, r2, #3
   81dee:	441a      	add	r2, r3
   81df0:	3b04      	subs	r3, #4
   81df2:	2100      	movs	r1, #0
   81df4:	f843 1b04 	str.w	r1, [r3], #4
   81df8:	4293      	cmp	r3, r2
   81dfa:	d1fb      	bne.n	81df4 <Reset_Handler+0x4c>
   81dfc:	4b12      	ldr	r3, [pc, #72]	; (81e48 <Reset_Handler+0xa0>)
   81dfe:	f023 4260 	bic.w	r2, r3, #3758096384	; 0xe0000000
   81e02:	f022 027f 	bic.w	r2, r2, #127	; 0x7f
   81e06:	4911      	ldr	r1, [pc, #68]	; (81e4c <Reset_Handler+0xa4>)
   81e08:	608a      	str	r2, [r1, #8]
   81e0a:	f103 4360 	add.w	r3, r3, #3758096384	; 0xe0000000
   81e0e:	f5b3 1f80 	cmp.w	r3, #1048576	; 0x100000
   81e12:	d203      	bcs.n	81e1c <Reset_Handler+0x74>
   81e14:	688b      	ldr	r3, [r1, #8]
   81e16:	f043 5300 	orr.w	r3, r3, #536870912	; 0x20000000
   81e1a:	608b      	str	r3, [r1, #8]
   81e1c:	4b0c      	ldr	r3, [pc, #48]	; (81e50 <Reset_Handler+0xa8>)
   81e1e:	4798      	blx	r3
   81e20:	4b0c      	ldr	r3, [pc, #48]	; (81e54 <Reset_Handler+0xac>)
   81e22:	4798      	blx	r3
   81e24:	e7fe      	b.n	81e24 <Reset_Handler+0x7c>
   81e26:	bf00      	nop
   81e28:	20070000 	.word	0x20070000
   81e2c:	00082400 	.word	0x00082400
   81e30:	20070568 	.word	0x20070568
   81e34:	2007a748 	.word	0x2007a748
   81e38:	20070568 	.word	0x20070568
   81e3c:	2007056b 	.word	0x2007056b
   81e40:	2007056c 	.word	0x2007056c
   81e44:	2007a74b 	.word	0x2007a74b
   81e48:	00080000 	.word	0x00080000
   81e4c:	e000ed00 	.word	0xe000ed00
   81e50:	00082069 	.word	0x00082069
   81e54:	00081f75 	.word	0x00081f75

00081e58 <SystemCoreClockUpdate>:
   81e58:	4b3e      	ldr	r3, [pc, #248]	; (81f54 <SystemCoreClockUpdate+0xfc>)
   81e5a:	6b1b      	ldr	r3, [r3, #48]	; 0x30
   81e5c:	f003 0303 	and.w	r3, r3, #3
   81e60:	2b03      	cmp	r3, #3
   81e62:	d85f      	bhi.n	81f24 <SystemCoreClockUpdate+0xcc>
   81e64:	e8df f003 	tbb	[pc, r3]
   81e68:	2b2b0e02 	.word	0x2b2b0e02
   81e6c:	4b3a      	ldr	r3, [pc, #232]	; (81f58 <SystemCoreClockUpdate+0x100>)
   81e6e:	695b      	ldr	r3, [r3, #20]
   81e70:	f013 0f80 	tst.w	r3, #128	; 0x80
   81e74:	bf14      	ite	ne
   81e76:	f44f 4200 	movne.w	r2, #32768	; 0x8000
   81e7a:	f44f 42fa 	moveq.w	r2, #32000	; 0x7d00
   81e7e:	4b37      	ldr	r3, [pc, #220]	; (81f5c <SystemCoreClockUpdate+0x104>)
   81e80:	601a      	str	r2, [r3, #0]
   81e82:	e04f      	b.n	81f24 <SystemCoreClockUpdate+0xcc>
   81e84:	4b33      	ldr	r3, [pc, #204]	; (81f54 <SystemCoreClockUpdate+0xfc>)
   81e86:	6a1b      	ldr	r3, [r3, #32]
   81e88:	f013 7f80 	tst.w	r3, #16777216	; 0x1000000
   81e8c:	d003      	beq.n	81e96 <SystemCoreClockUpdate+0x3e>
   81e8e:	4a34      	ldr	r2, [pc, #208]	; (81f60 <SystemCoreClockUpdate+0x108>)
   81e90:	4b32      	ldr	r3, [pc, #200]	; (81f5c <SystemCoreClockUpdate+0x104>)
   81e92:	601a      	str	r2, [r3, #0]
   81e94:	e046      	b.n	81f24 <SystemCoreClockUpdate+0xcc>
   81e96:	4a33      	ldr	r2, [pc, #204]	; (81f64 <SystemCoreClockUpdate+0x10c>)
   81e98:	4b30      	ldr	r3, [pc, #192]	; (81f5c <SystemCoreClockUpdate+0x104>)
   81e9a:	601a      	str	r2, [r3, #0]
   81e9c:	4b2d      	ldr	r3, [pc, #180]	; (81f54 <SystemCoreClockUpdate+0xfc>)
   81e9e:	6a1b      	ldr	r3, [r3, #32]
   81ea0:	f003 0370 	and.w	r3, r3, #112	; 0x70
   81ea4:	2b10      	cmp	r3, #16
   81ea6:	d002      	beq.n	81eae <SystemCoreClockUpdate+0x56>
   81ea8:	2b20      	cmp	r3, #32
   81eaa:	d004      	beq.n	81eb6 <SystemCoreClockUpdate+0x5e>
   81eac:	e03a      	b.n	81f24 <SystemCoreClockUpdate+0xcc>
   81eae:	4a2e      	ldr	r2, [pc, #184]	; (81f68 <SystemCoreClockUpdate+0x110>)
   81eb0:	4b2a      	ldr	r3, [pc, #168]	; (81f5c <SystemCoreClockUpdate+0x104>)
   81eb2:	601a      	str	r2, [r3, #0]
   81eb4:	e036      	b.n	81f24 <SystemCoreClockUpdate+0xcc>
   81eb6:	4a2a      	ldr	r2, [pc, #168]	; (81f60 <SystemCoreClockUpdate+0x108>)
   81eb8:	4b28      	ldr	r3, [pc, #160]	; (81f5c <SystemCoreClockUpdate+0x104>)
   81eba:	601a      	str	r2, [r3, #0]
   81ebc:	e032      	b.n	81f24 <SystemCoreClockUpdate+0xcc>
   81ebe:	4b25      	ldr	r3, [pc, #148]	; (81f54 <SystemCoreClockUpdate+0xfc>)
   81ec0:	6a1b      	ldr	r3, [r3, #32]
   81ec2:	f013 7f80 	tst.w	r3, #16777216	; 0x1000000
   81ec6:	d003      	beq.n	81ed0 <SystemCoreClockUpdate+0x78>
   81ec8:	4a25      	ldr	r2, [pc, #148]	; (81f60 <SystemCoreClockUpdate+0x108>)
   81eca:	4b24      	ldr	r3, [pc, #144]	; (81f5c <SystemCoreClockUpdate+0x104>)
   81ecc:	601a      	str	r2, [r3, #0]
   81ece:	e012      	b.n	81ef6 <SystemCoreClockUpdate+0x9e>
   81ed0:	4a24      	ldr	r2, [pc, #144]	; (81f64 <SystemCoreClockUpdate+0x10c>)
   81ed2:	4b22      	ldr	r3, [pc, #136]	; (81f5c <SystemCoreClockUpdate+0x104>)
   81ed4:	601a      	str	r2, [r3, #0]
   81ed6:	4b1f      	ldr	r3, [pc, #124]	; (81f54 <SystemCoreClockUpdate+0xfc>)
   81ed8:	6a1b      	ldr	r3, [r3, #32]
   81eda:	f003 0370 	and.w	r3, r3, #112	; 0x70
   81ede:	2b10      	cmp	r3, #16
   81ee0:	d002      	beq.n	81ee8 <SystemCoreClockUpdate+0x90>
   81ee2:	2b20      	cmp	r3, #32
   81ee4:	d004      	beq.n	81ef0 <SystemCoreClockUpdate+0x98>
   81ee6:	e006      	b.n	81ef6 <SystemCoreClockUpdate+0x9e>
   81ee8:	4a1f      	ldr	r2, [pc, #124]	; (81f68 <SystemCoreClockUpdate+0x110>)
   81eea:	4b1c      	ldr	r3, [pc, #112]	; (81f5c <SystemCoreClockUpdate+0x104>)
   81eec:	601a      	str	r2, [r3, #0]
   81eee:	e002      	b.n	81ef6 <SystemCoreClockUpdate+0x9e>
   81ef0:	4a1b      	ldr	r2, [pc, #108]	; (81f60 <SystemCoreClockUpdate+0x108>)
   81ef2:	4b1a      	ldr	r3, [pc, #104]	; (81f5c <SystemCoreClockUpdate+0x104>)
   81ef4:	601a      	str	r2, [r3, #0]
   81ef6:	4b17      	ldr	r3, [pc, #92]	; (81f54 <SystemCoreClockUpdate+0xfc>)
   81ef8:	6b1b      	ldr	r3, [r3, #48]	; 0x30
   81efa:	f003 0303 	and.w	r3, r3, #3
   81efe:	2b02      	cmp	r3, #2
   81f00:	d10d      	bne.n	81f1e <SystemCoreClockUpdate+0xc6>
   81f02:	4a14      	ldr	r2, [pc, #80]	; (81f54 <SystemCoreClockUpdate+0xfc>)
   81f04:	6a93      	ldr	r3, [r2, #40]	; 0x28
   81f06:	6a92      	ldr	r2, [r2, #40]	; 0x28
   81f08:	4814      	ldr	r0, [pc, #80]	; (81f5c <SystemCoreClockUpdate+0x104>)
   81f0a:	f3c3 410a 	ubfx	r1, r3, #16, #11
   81f0e:	6803      	ldr	r3, [r0, #0]
   81f10:	fb01 3303 	mla	r3, r1, r3, r3
   81f14:	b2d2      	uxtb	r2, r2
   81f16:	fbb3 f3f2 	udiv	r3, r3, r2
   81f1a:	6003      	str	r3, [r0, #0]
   81f1c:	e002      	b.n	81f24 <SystemCoreClockUpdate+0xcc>
   81f1e:	4a13      	ldr	r2, [pc, #76]	; (81f6c <SystemCoreClockUpdate+0x114>)
   81f20:	4b0e      	ldr	r3, [pc, #56]	; (81f5c <SystemCoreClockUpdate+0x104>)
   81f22:	601a      	str	r2, [r3, #0]
   81f24:	4b0b      	ldr	r3, [pc, #44]	; (81f54 <SystemCoreClockUpdate+0xfc>)
   81f26:	6b1b      	ldr	r3, [r3, #48]	; 0x30
   81f28:	f003 0370 	and.w	r3, r3, #112	; 0x70
   81f2c:	2b70      	cmp	r3, #112	; 0x70
   81f2e:	d107      	bne.n	81f40 <SystemCoreClockUpdate+0xe8>
   81f30:	4a0a      	ldr	r2, [pc, #40]	; (81f5c <SystemCoreClockUpdate+0x104>)
   81f32:	6813      	ldr	r3, [r2, #0]
   81f34:	490e      	ldr	r1, [pc, #56]	; (81f70 <SystemCoreClockUpdate+0x118>)
   81f36:	fba1 1303 	umull	r1, r3, r1, r3
   81f3a:	085b      	lsrs	r3, r3, #1
   81f3c:	6013      	str	r3, [r2, #0]
   81f3e:	4770      	bx	lr
   81f40:	4b04      	ldr	r3, [pc, #16]	; (81f54 <SystemCoreClockUpdate+0xfc>)
   81f42:	6b1a      	ldr	r2, [r3, #48]	; 0x30
   81f44:	4905      	ldr	r1, [pc, #20]	; (81f5c <SystemCoreClockUpdate+0x104>)
   81f46:	f3c2 1202 	ubfx	r2, r2, #4, #3
   81f4a:	680b      	ldr	r3, [r1, #0]
   81f4c:	40d3      	lsrs	r3, r2
   81f4e:	600b      	str	r3, [r1, #0]
   81f50:	4770      	bx	lr
   81f52:	bf00      	nop
   81f54:	400e0600 	.word	0x400e0600
   81f58:	400e1a10 	.word	0x400e1a10
   81f5c:	20070138 	.word	0x20070138
   81f60:	00b71b00 	.word	0x00b71b00
   81f64:	003d0900 	.word	0x003d0900
   81f68:	007a1200 	.word	0x007a1200
   81f6c:	0e4e1c00 	.word	0x0e4e1c00
   81f70:	aaaaaaab 	.word	0xaaaaaaab

00081f74 <main>:
xSemaphoreHandle pos_nav_task = NULL;
xSemaphoreHandle regulatory_task = NULL;
xSemaphoreHandle arm_task = NULL;

int main (void)
{
   81f74:	b570      	push	{r4, r5, r6, lr}
   81f76:	b084      	sub	sp, #16
	sysclk_init();
   81f78:	4b2a      	ldr	r3, [pc, #168]	; (82024 <main+0xb0>)
   81f7a:	4798      	blx	r3
	board_init();
   81f7c:	4b2a      	ldr	r3, [pc, #168]	; (82028 <main+0xb4>)
   81f7e:	4798      	blx	r3
	delay_init();
   81f80:	4b2a      	ldr	r3, [pc, #168]	; (8202c <main+0xb8>)
   81f82:	4798      	blx	r3
	uart0_init();
   81f84:	4b2a      	ldr	r3, [pc, #168]	; (82030 <main+0xbc>)
   81f86:	4798      	blx	r3
	pins_init();
   81f88:	4b2a      	ldr	r3, [pc, #168]	; (82034 <main+0xc0>)
   81f8a:	4798      	blx	r3
 *
 * \param ul_id Id (number) of the peripheral clock.
 */
static inline void sysclk_enable_peripheral_clock(uint32_t ul_id)
{
	pmc_enable_periph_clk(ul_id);
   81f8c:	200b      	movs	r0, #11
   81f8e:	4c2a      	ldr	r4, [pc, #168]	; (82038 <main+0xc4>)
   81f90:	47a0      	blx	r4
   81f92:	200c      	movs	r0, #12
   81f94:	47a0      	blx	r4
   81f96:	200d      	movs	r0, #13
   81f98:	47a0      	blx	r4
   81f9a:	200e      	movs	r0, #14
   81f9c:	47a0      	blx	r4
}

__always_inline static void arch_ioport_enable_port(ioport_port_t port,
		ioport_port_mask_t mask)
{
	arch_ioport_port_to_base(port)->PIO_PER = mask;
   81f9e:	4b27      	ldr	r3, [pc, #156]	; (8203c <main+0xc8>)
   81fa0:	f04f 6200 	mov.w	r2, #134217728	; 0x8000000
   81fa4:	601a      	str	r2, [r3, #0]
   81fa6:	f04f 6180 	mov.w	r1, #67108864	; 0x4000000
   81faa:	6019      	str	r1, [r3, #0]
		enum ioport_direction dir)
{
	Pio *base = arch_ioport_pin_to_base(pin);

	if (dir == IOPORT_DIR_OUTPUT) {
		base->PIO_OER = arch_ioport_pin_to_mask(pin);
   81fac:	6119      	str	r1, [r3, #16]
	} else if (dir == IOPORT_DIR_INPUT) {
		base->PIO_ODR = arch_ioport_pin_to_mask(pin);
	}

	base->PIO_OWER = arch_ioport_pin_to_mask(pin);
   81fae:	f8c3 10a0 	str.w	r1, [r3, #160]	; 0xa0
		enum ioport_direction dir)
{
	Pio *base = arch_ioport_pin_to_base(pin);

	if (dir == IOPORT_DIR_OUTPUT) {
		base->PIO_OER = arch_ioport_pin_to_mask(pin);
   81fb2:	611a      	str	r2, [r3, #16]
	} else if (dir == IOPORT_DIR_INPUT) {
		base->PIO_ODR = arch_ioport_pin_to_mask(pin);
	}

	base->PIO_OWER = arch_ioport_pin_to_mask(pin);
   81fb4:	f8c3 20a0 	str.w	r2, [r3, #160]	; 0xa0
		//sprintf(string, "counter: %d\n", get_counter());
		//uart0_write_str(string);
		//delay_ms(50);
	//}
	
	vSemaphoreCreateBinary(pos_nav_task);
   81fb8:	2001      	movs	r0, #1
   81fba:	2100      	movs	r1, #0
   81fbc:	2203      	movs	r2, #3
   81fbe:	4b20      	ldr	r3, [pc, #128]	; (82040 <main+0xcc>)
   81fc0:	4798      	blx	r3
   81fc2:	4b20      	ldr	r3, [pc, #128]	; (82044 <main+0xd0>)
   81fc4:	6018      	str	r0, [r3, #0]
   81fc6:	b120      	cbz	r0, 81fd2 <main+0x5e>
   81fc8:	2100      	movs	r1, #0
   81fca:	460a      	mov	r2, r1
   81fcc:	460b      	mov	r3, r1
   81fce:	4c1e      	ldr	r4, [pc, #120]	; (82048 <main+0xd4>)
   81fd0:	47a0      	blx	r4
	vSemaphoreCreateBinary(regulatory_task);
   81fd2:	2001      	movs	r0, #1
   81fd4:	2100      	movs	r1, #0
   81fd6:	2203      	movs	r2, #3
   81fd8:	4b19      	ldr	r3, [pc, #100]	; (82040 <main+0xcc>)
   81fda:	4798      	blx	r3
   81fdc:	4b1b      	ldr	r3, [pc, #108]	; (8204c <main+0xd8>)
   81fde:	6018      	str	r0, [r3, #0]
   81fe0:	b120      	cbz	r0, 81fec <main+0x78>
   81fe2:	2100      	movs	r1, #0
   81fe4:	460a      	mov	r2, r1
   81fe6:	460b      	mov	r3, r1
   81fe8:	4c17      	ldr	r4, [pc, #92]	; (82048 <main+0xd4>)
   81fea:	47a0      	blx	r4
	
	xTaskCreate(Task_pos_nav, (const signed char * const) "pos_nav", POS_NAV_TASK_STACK_SIZE, NULL, POS_NAV_TASK_PRIORITY, NULL);
   81fec:	2602      	movs	r6, #2
   81fee:	9600      	str	r6, [sp, #0]
   81ff0:	2400      	movs	r4, #0
   81ff2:	9401      	str	r4, [sp, #4]
   81ff4:	9402      	str	r4, [sp, #8]
   81ff6:	9403      	str	r4, [sp, #12]
   81ff8:	4815      	ldr	r0, [pc, #84]	; (82050 <main+0xdc>)
   81ffa:	4916      	ldr	r1, [pc, #88]	; (82054 <main+0xe0>)
   81ffc:	f44f 7200 	mov.w	r2, #512	; 0x200
   82000:	4623      	mov	r3, r4
   82002:	4d15      	ldr	r5, [pc, #84]	; (82058 <main+0xe4>)
   82004:	47a8      	blx	r5
	xTaskCreate(Task_regulatory, (const signed char * const) "regulatory", REGULATORY_TASK_STACK_SIZE, NULL, REGULATORY_TASK_PRIORITY, NULL);
   82006:	9600      	str	r6, [sp, #0]
   82008:	9401      	str	r4, [sp, #4]
   8200a:	9402      	str	r4, [sp, #8]
   8200c:	9403      	str	r4, [sp, #12]
   8200e:	4813      	ldr	r0, [pc, #76]	; (8205c <main+0xe8>)
   82010:	4913      	ldr	r1, [pc, #76]	; (82060 <main+0xec>)
   82012:	f44f 7200 	mov.w	r2, #512	; 0x200
   82016:	4623      	mov	r3, r4
   82018:	47a8      	blx	r5
	// Not testing arm task at the current state
	//vSemaphoreCreateBinary(arm_task);
	//xTaskCreate(arm_task, (const signed char * const) "arm", ARM_TASK_STACK_SIZE, NULL, ARM_TASK_PRIORITY, NULL);
	
	/* Start the FreeRTOS scheduler running all tasks indefinitely*/
	vTaskStartScheduler();
   8201a:	4b12      	ldr	r3, [pc, #72]	; (82064 <main+0xf0>)
   8201c:	4798      	blx	r3
}
   8201e:	4620      	mov	r0, r4
   82020:	b004      	add	sp, #16
   82022:	bd70      	pop	{r4, r5, r6, pc}
   82024:	00081829 	.word	0x00081829
   82028:	0008188d 	.word	0x0008188d
   8202c:	0008017d 	.word	0x0008017d
   82030:	0008029d 	.word	0x0008029d
   82034:	000801d1 	.word	0x000801d1
   82038:	00081d51 	.word	0x00081d51
   8203c:	400e1000 	.word	0x400e1000
   82040:	000807a9 	.word	0x000807a9
   82044:	2007a740 	.word	0x2007a740
   82048:	00080801 	.word	0x00080801
   8204c:	2007a744 	.word	0x2007a744
   82050:	0008023d 	.word	0x0008023d
   82054:	000823c0 	.word	0x000823c0
   82058:	00080bb1 	.word	0x00080bb1
   8205c:	0008026d 	.word	0x0008026d
   82060:	000823c8 	.word	0x000823c8
   82064:	00080db5 	.word	0x00080db5

00082068 <__libc_init_array>:
   82068:	b570      	push	{r4, r5, r6, lr}
   8206a:	4e0f      	ldr	r6, [pc, #60]	; (820a8 <__libc_init_array+0x40>)
   8206c:	4d0f      	ldr	r5, [pc, #60]	; (820ac <__libc_init_array+0x44>)
   8206e:	1b76      	subs	r6, r6, r5
   82070:	10b6      	asrs	r6, r6, #2
   82072:	bf18      	it	ne
   82074:	2400      	movne	r4, #0
   82076:	d005      	beq.n	82084 <__libc_init_array+0x1c>
   82078:	3401      	adds	r4, #1
   8207a:	f855 3b04 	ldr.w	r3, [r5], #4
   8207e:	4798      	blx	r3
   82080:	42a6      	cmp	r6, r4
   82082:	d1f9      	bne.n	82078 <__libc_init_array+0x10>
   82084:	4e0a      	ldr	r6, [pc, #40]	; (820b0 <__libc_init_array+0x48>)
   82086:	4d0b      	ldr	r5, [pc, #44]	; (820b4 <__libc_init_array+0x4c>)
   82088:	f000 f9a8 	bl	823dc <_init>
   8208c:	1b76      	subs	r6, r6, r5
   8208e:	10b6      	asrs	r6, r6, #2
   82090:	bf18      	it	ne
   82092:	2400      	movne	r4, #0
   82094:	d006      	beq.n	820a4 <__libc_init_array+0x3c>
   82096:	3401      	adds	r4, #1
   82098:	f855 3b04 	ldr.w	r3, [r5], #4
   8209c:	4798      	blx	r3
   8209e:	42a6      	cmp	r6, r4
   820a0:	d1f9      	bne.n	82096 <__libc_init_array+0x2e>
   820a2:	bd70      	pop	{r4, r5, r6, pc}
   820a4:	bd70      	pop	{r4, r5, r6, pc}
   820a6:	bf00      	nop
   820a8:	000823e8 	.word	0x000823e8
   820ac:	000823e8 	.word	0x000823e8
   820b0:	000823f0 	.word	0x000823f0
   820b4:	000823e8 	.word	0x000823e8

000820b8 <memcpy>:
   820b8:	4684      	mov	ip, r0
   820ba:	ea41 0300 	orr.w	r3, r1, r0
   820be:	f013 0303 	ands.w	r3, r3, #3
   820c2:	d149      	bne.n	82158 <memcpy+0xa0>
   820c4:	3a40      	subs	r2, #64	; 0x40
   820c6:	d323      	bcc.n	82110 <memcpy+0x58>
   820c8:	680b      	ldr	r3, [r1, #0]
   820ca:	6003      	str	r3, [r0, #0]
   820cc:	684b      	ldr	r3, [r1, #4]
   820ce:	6043      	str	r3, [r0, #4]
   820d0:	688b      	ldr	r3, [r1, #8]
   820d2:	6083      	str	r3, [r0, #8]
   820d4:	68cb      	ldr	r3, [r1, #12]
   820d6:	60c3      	str	r3, [r0, #12]
   820d8:	690b      	ldr	r3, [r1, #16]
   820da:	6103      	str	r3, [r0, #16]
   820dc:	694b      	ldr	r3, [r1, #20]
   820de:	6143      	str	r3, [r0, #20]
   820e0:	698b      	ldr	r3, [r1, #24]
   820e2:	6183      	str	r3, [r0, #24]
   820e4:	69cb      	ldr	r3, [r1, #28]
   820e6:	61c3      	str	r3, [r0, #28]
   820e8:	6a0b      	ldr	r3, [r1, #32]
   820ea:	6203      	str	r3, [r0, #32]
   820ec:	6a4b      	ldr	r3, [r1, #36]	; 0x24
   820ee:	6243      	str	r3, [r0, #36]	; 0x24
   820f0:	6a8b      	ldr	r3, [r1, #40]	; 0x28
   820f2:	6283      	str	r3, [r0, #40]	; 0x28
   820f4:	6acb      	ldr	r3, [r1, #44]	; 0x2c
   820f6:	62c3      	str	r3, [r0, #44]	; 0x2c
   820f8:	6b0b      	ldr	r3, [r1, #48]	; 0x30
   820fa:	6303      	str	r3, [r0, #48]	; 0x30
   820fc:	6b4b      	ldr	r3, [r1, #52]	; 0x34
   820fe:	6343      	str	r3, [r0, #52]	; 0x34
   82100:	6b8b      	ldr	r3, [r1, #56]	; 0x38
   82102:	6383      	str	r3, [r0, #56]	; 0x38
   82104:	6bcb      	ldr	r3, [r1, #60]	; 0x3c
   82106:	63c3      	str	r3, [r0, #60]	; 0x3c
   82108:	3040      	adds	r0, #64	; 0x40
   8210a:	3140      	adds	r1, #64	; 0x40
   8210c:	3a40      	subs	r2, #64	; 0x40
   8210e:	d2db      	bcs.n	820c8 <memcpy+0x10>
   82110:	3230      	adds	r2, #48	; 0x30
   82112:	d30b      	bcc.n	8212c <memcpy+0x74>
   82114:	680b      	ldr	r3, [r1, #0]
   82116:	6003      	str	r3, [r0, #0]
   82118:	684b      	ldr	r3, [r1, #4]
   8211a:	6043      	str	r3, [r0, #4]
   8211c:	688b      	ldr	r3, [r1, #8]
   8211e:	6083      	str	r3, [r0, #8]
   82120:	68cb      	ldr	r3, [r1, #12]
   82122:	60c3      	str	r3, [r0, #12]
   82124:	3010      	adds	r0, #16
   82126:	3110      	adds	r1, #16
   82128:	3a10      	subs	r2, #16
   8212a:	d2f3      	bcs.n	82114 <memcpy+0x5c>
   8212c:	320c      	adds	r2, #12
   8212e:	d305      	bcc.n	8213c <memcpy+0x84>
   82130:	f851 3b04 	ldr.w	r3, [r1], #4
   82134:	f840 3b04 	str.w	r3, [r0], #4
   82138:	3a04      	subs	r2, #4
   8213a:	d2f9      	bcs.n	82130 <memcpy+0x78>
   8213c:	3204      	adds	r2, #4
   8213e:	d008      	beq.n	82152 <memcpy+0x9a>
   82140:	07d2      	lsls	r2, r2, #31
   82142:	bf1c      	itt	ne
   82144:	f811 3b01 	ldrbne.w	r3, [r1], #1
   82148:	f800 3b01 	strbne.w	r3, [r0], #1
   8214c:	d301      	bcc.n	82152 <memcpy+0x9a>
   8214e:	880b      	ldrh	r3, [r1, #0]
   82150:	8003      	strh	r3, [r0, #0]
   82152:	4660      	mov	r0, ip
   82154:	4770      	bx	lr
   82156:	bf00      	nop
   82158:	2a08      	cmp	r2, #8
   8215a:	d313      	bcc.n	82184 <memcpy+0xcc>
   8215c:	078b      	lsls	r3, r1, #30
   8215e:	d0b1      	beq.n	820c4 <memcpy+0xc>
   82160:	f010 0303 	ands.w	r3, r0, #3
   82164:	d0ae      	beq.n	820c4 <memcpy+0xc>
   82166:	f1c3 0304 	rsb	r3, r3, #4
   8216a:	1ad2      	subs	r2, r2, r3
   8216c:	07db      	lsls	r3, r3, #31
   8216e:	bf1c      	itt	ne
   82170:	f811 3b01 	ldrbne.w	r3, [r1], #1
   82174:	f800 3b01 	strbne.w	r3, [r0], #1
   82178:	d3a4      	bcc.n	820c4 <memcpy+0xc>
   8217a:	f831 3b02 	ldrh.w	r3, [r1], #2
   8217e:	f820 3b02 	strh.w	r3, [r0], #2
   82182:	e79f      	b.n	820c4 <memcpy+0xc>
   82184:	3a04      	subs	r2, #4
   82186:	d3d9      	bcc.n	8213c <memcpy+0x84>
   82188:	3a01      	subs	r2, #1
   8218a:	f811 3b01 	ldrb.w	r3, [r1], #1
   8218e:	f800 3b01 	strb.w	r3, [r0], #1
   82192:	d2f9      	bcs.n	82188 <memcpy+0xd0>
   82194:	780b      	ldrb	r3, [r1, #0]
   82196:	7003      	strb	r3, [r0, #0]
   82198:	784b      	ldrb	r3, [r1, #1]
   8219a:	7043      	strb	r3, [r0, #1]
   8219c:	788b      	ldrb	r3, [r1, #2]
   8219e:	7083      	strb	r3, [r0, #2]
   821a0:	4660      	mov	r0, ip
   821a2:	4770      	bx	lr

000821a4 <memset>:
   821a4:	b470      	push	{r4, r5, r6}
   821a6:	0784      	lsls	r4, r0, #30
   821a8:	d046      	beq.n	82238 <memset+0x94>
   821aa:	1e54      	subs	r4, r2, #1
   821ac:	2a00      	cmp	r2, #0
   821ae:	d041      	beq.n	82234 <memset+0x90>
   821b0:	b2cd      	uxtb	r5, r1
   821b2:	4603      	mov	r3, r0
   821b4:	e002      	b.n	821bc <memset+0x18>
   821b6:	1e62      	subs	r2, r4, #1
   821b8:	b3e4      	cbz	r4, 82234 <memset+0x90>
   821ba:	4614      	mov	r4, r2
   821bc:	f803 5b01 	strb.w	r5, [r3], #1
   821c0:	079a      	lsls	r2, r3, #30
   821c2:	d1f8      	bne.n	821b6 <memset+0x12>
   821c4:	2c03      	cmp	r4, #3
   821c6:	d92e      	bls.n	82226 <memset+0x82>
   821c8:	b2cd      	uxtb	r5, r1
   821ca:	ea45 2505 	orr.w	r5, r5, r5, lsl #8
   821ce:	2c0f      	cmp	r4, #15
   821d0:	ea45 4505 	orr.w	r5, r5, r5, lsl #16
   821d4:	d919      	bls.n	8220a <memset+0x66>
   821d6:	4626      	mov	r6, r4
   821d8:	f103 0210 	add.w	r2, r3, #16
   821dc:	3e10      	subs	r6, #16
   821de:	2e0f      	cmp	r6, #15
   821e0:	f842 5c10 	str.w	r5, [r2, #-16]
   821e4:	f842 5c0c 	str.w	r5, [r2, #-12]
   821e8:	f842 5c08 	str.w	r5, [r2, #-8]
   821ec:	f842 5c04 	str.w	r5, [r2, #-4]
   821f0:	f102 0210 	add.w	r2, r2, #16
   821f4:	d8f2      	bhi.n	821dc <memset+0x38>
   821f6:	f1a4 0210 	sub.w	r2, r4, #16
   821fa:	f022 020f 	bic.w	r2, r2, #15
   821fe:	f004 040f 	and.w	r4, r4, #15
   82202:	3210      	adds	r2, #16
   82204:	2c03      	cmp	r4, #3
   82206:	4413      	add	r3, r2
   82208:	d90d      	bls.n	82226 <memset+0x82>
   8220a:	461e      	mov	r6, r3
   8220c:	4622      	mov	r2, r4
   8220e:	3a04      	subs	r2, #4
   82210:	2a03      	cmp	r2, #3
   82212:	f846 5b04 	str.w	r5, [r6], #4
   82216:	d8fa      	bhi.n	8220e <memset+0x6a>
   82218:	1f22      	subs	r2, r4, #4
   8221a:	f022 0203 	bic.w	r2, r2, #3
   8221e:	3204      	adds	r2, #4
   82220:	4413      	add	r3, r2
   82222:	f004 0403 	and.w	r4, r4, #3
   82226:	b12c      	cbz	r4, 82234 <memset+0x90>
   82228:	b2c9      	uxtb	r1, r1
   8222a:	441c      	add	r4, r3
   8222c:	f803 1b01 	strb.w	r1, [r3], #1
   82230:	42a3      	cmp	r3, r4
   82232:	d1fb      	bne.n	8222c <memset+0x88>
   82234:	bc70      	pop	{r4, r5, r6}
   82236:	4770      	bx	lr
   82238:	4614      	mov	r4, r2
   8223a:	4603      	mov	r3, r0
   8223c:	e7c2      	b.n	821c4 <memset+0x20>
   8223e:	bf00      	nop

00082240 <strncpy>:
   82240:	ea40 0301 	orr.w	r3, r0, r1
   82244:	079b      	lsls	r3, r3, #30
   82246:	b470      	push	{r4, r5, r6}
   82248:	d12b      	bne.n	822a2 <strncpy+0x62>
   8224a:	2a03      	cmp	r2, #3
   8224c:	d929      	bls.n	822a2 <strncpy+0x62>
   8224e:	460c      	mov	r4, r1
   82250:	4603      	mov	r3, r0
   82252:	4621      	mov	r1, r4
   82254:	f854 6b04 	ldr.w	r6, [r4], #4
   82258:	f1a6 3501 	sub.w	r5, r6, #16843009	; 0x1010101
   8225c:	ea25 0506 	bic.w	r5, r5, r6
   82260:	f015 3f80 	tst.w	r5, #2155905152	; 0x80808080
   82264:	d105      	bne.n	82272 <strncpy+0x32>
   82266:	3a04      	subs	r2, #4
   82268:	2a03      	cmp	r2, #3
   8226a:	f843 6b04 	str.w	r6, [r3], #4
   8226e:	4621      	mov	r1, r4
   82270:	d8ef      	bhi.n	82252 <strncpy+0x12>
   82272:	b1a2      	cbz	r2, 8229e <strncpy+0x5e>
   82274:	780c      	ldrb	r4, [r1, #0]
   82276:	3a01      	subs	r2, #1
   82278:	701c      	strb	r4, [r3, #0]
   8227a:	3101      	adds	r1, #1
   8227c:	3301      	adds	r3, #1
   8227e:	b13c      	cbz	r4, 82290 <strncpy+0x50>
   82280:	b16a      	cbz	r2, 8229e <strncpy+0x5e>
   82282:	f811 4b01 	ldrb.w	r4, [r1], #1
   82286:	3a01      	subs	r2, #1
   82288:	f803 4b01 	strb.w	r4, [r3], #1
   8228c:	2c00      	cmp	r4, #0
   8228e:	d1f7      	bne.n	82280 <strncpy+0x40>
   82290:	b12a      	cbz	r2, 8229e <strncpy+0x5e>
   82292:	441a      	add	r2, r3
   82294:	2100      	movs	r1, #0
   82296:	f803 1b01 	strb.w	r1, [r3], #1
   8229a:	4293      	cmp	r3, r2
   8229c:	d1fb      	bne.n	82296 <strncpy+0x56>
   8229e:	bc70      	pop	{r4, r5, r6}
   822a0:	4770      	bx	lr
   822a2:	4603      	mov	r3, r0
   822a4:	e7e5      	b.n	82272 <strncpy+0x32>
   822a6:	bf00      	nop

000822a8 <register_fini>:
   822a8:	4b02      	ldr	r3, [pc, #8]	; (822b4 <register_fini+0xc>)
   822aa:	b113      	cbz	r3, 822b2 <register_fini+0xa>
   822ac:	4802      	ldr	r0, [pc, #8]	; (822b8 <register_fini+0x10>)
   822ae:	f000 b805 	b.w	822bc <atexit>
   822b2:	4770      	bx	lr
   822b4:	00000000 	.word	0x00000000
   822b8:	000822c9 	.word	0x000822c9

000822bc <atexit>:
   822bc:	4601      	mov	r1, r0
   822be:	2000      	movs	r0, #0
   822c0:	4602      	mov	r2, r0
   822c2:	4603      	mov	r3, r0
   822c4:	f000 b816 	b.w	822f4 <__register_exitproc>

000822c8 <__libc_fini_array>:
   822c8:	b538      	push	{r3, r4, r5, lr}
   822ca:	4b08      	ldr	r3, [pc, #32]	; (822ec <__libc_fini_array+0x24>)
   822cc:	4d08      	ldr	r5, [pc, #32]	; (822f0 <__libc_fini_array+0x28>)
   822ce:	1aed      	subs	r5, r5, r3
   822d0:	10ac      	asrs	r4, r5, #2
   822d2:	bf18      	it	ne
   822d4:	18ed      	addne	r5, r5, r3
   822d6:	d005      	beq.n	822e4 <__libc_fini_array+0x1c>
   822d8:	3c01      	subs	r4, #1
   822da:	f855 3d04 	ldr.w	r3, [r5, #-4]!
   822de:	4798      	blx	r3
   822e0:	2c00      	cmp	r4, #0
   822e2:	d1f9      	bne.n	822d8 <__libc_fini_array+0x10>
   822e4:	e8bd 4038 	ldmia.w	sp!, {r3, r4, r5, lr}
   822e8:	f000 b882 	b.w	823f0 <_fini>
   822ec:	000823fc 	.word	0x000823fc
   822f0:	00082400 	.word	0x00082400

000822f4 <__register_exitproc>:
   822f4:	e92d 47f0 	stmdb	sp!, {r4, r5, r6, r7, r8, r9, sl, lr}
   822f8:	4c25      	ldr	r4, [pc, #148]	; (82390 <__register_exitproc+0x9c>)
   822fa:	4606      	mov	r6, r0
   822fc:	6825      	ldr	r5, [r4, #0]
   822fe:	4688      	mov	r8, r1
   82300:	f8d5 4148 	ldr.w	r4, [r5, #328]	; 0x148
   82304:	4692      	mov	sl, r2
   82306:	4699      	mov	r9, r3
   82308:	b3c4      	cbz	r4, 8237c <__register_exitproc+0x88>
   8230a:	6860      	ldr	r0, [r4, #4]
   8230c:	281f      	cmp	r0, #31
   8230e:	dc17      	bgt.n	82340 <__register_exitproc+0x4c>
   82310:	1c41      	adds	r1, r0, #1
   82312:	b176      	cbz	r6, 82332 <__register_exitproc+0x3e>
   82314:	eb04 0380 	add.w	r3, r4, r0, lsl #2
   82318:	f8c3 a088 	str.w	sl, [r3, #136]	; 0x88
   8231c:	f8d4 5188 	ldr.w	r5, [r4, #392]	; 0x188
   82320:	2201      	movs	r2, #1
   82322:	4082      	lsls	r2, r0
   82324:	4315      	orrs	r5, r2
   82326:	2e02      	cmp	r6, #2
   82328:	f8c4 5188 	str.w	r5, [r4, #392]	; 0x188
   8232c:	f8c3 9108 	str.w	r9, [r3, #264]	; 0x108
   82330:	d01e      	beq.n	82370 <__register_exitproc+0x7c>
   82332:	1c83      	adds	r3, r0, #2
   82334:	6061      	str	r1, [r4, #4]
   82336:	2000      	movs	r0, #0
   82338:	f844 8023 	str.w	r8, [r4, r3, lsl #2]
   8233c:	e8bd 87f0 	ldmia.w	sp!, {r4, r5, r6, r7, r8, r9, sl, pc}
   82340:	4b14      	ldr	r3, [pc, #80]	; (82394 <__register_exitproc+0xa0>)
   82342:	b303      	cbz	r3, 82386 <__register_exitproc+0x92>
   82344:	f44f 70c8 	mov.w	r0, #400	; 0x190
   82348:	f3af 8000 	nop.w
   8234c:	4604      	mov	r4, r0
   8234e:	b1d0      	cbz	r0, 82386 <__register_exitproc+0x92>
   82350:	f8d5 3148 	ldr.w	r3, [r5, #328]	; 0x148
   82354:	2700      	movs	r7, #0
   82356:	e884 0088 	stmia.w	r4, {r3, r7}
   8235a:	4638      	mov	r0, r7
   8235c:	f8c5 4148 	str.w	r4, [r5, #328]	; 0x148
   82360:	2101      	movs	r1, #1
   82362:	f8c4 7188 	str.w	r7, [r4, #392]	; 0x188
   82366:	f8c4 718c 	str.w	r7, [r4, #396]	; 0x18c
   8236a:	2e00      	cmp	r6, #0
   8236c:	d0e1      	beq.n	82332 <__register_exitproc+0x3e>
   8236e:	e7d1      	b.n	82314 <__register_exitproc+0x20>
   82370:	f8d4 318c 	ldr.w	r3, [r4, #396]	; 0x18c
   82374:	431a      	orrs	r2, r3
   82376:	f8c4 218c 	str.w	r2, [r4, #396]	; 0x18c
   8237a:	e7da      	b.n	82332 <__register_exitproc+0x3e>
   8237c:	f505 74a6 	add.w	r4, r5, #332	; 0x14c
   82380:	f8c5 4148 	str.w	r4, [r5, #328]	; 0x148
   82384:	e7c1      	b.n	8230a <__register_exitproc+0x16>
   82386:	f04f 30ff 	mov.w	r0, #4294967295
   8238a:	e8bd 87f0 	ldmia.w	sp!, {r4, r5, r6, r7, r8, r9, sl, pc}
   8238e:	bf00      	nop
   82390:	000823d8 	.word	0x000823d8
   82394:	00000000 	.word	0x00000000
   82398:	09097325 	.word	0x09097325
   8239c:	25096325 	.word	0x25096325
   823a0:	75250975 	.word	0x75250975
   823a4:	0d752509 	.word	0x0d752509
   823a8:	0000000a 	.word	0x0000000a
   823ac:	454c4449 	.word	0x454c4449
   823b0:	00000000 	.word	0x00000000
   823b4:	00000a0d 	.word	0x00000a0d
   823b8:	20726d54 	.word	0x20726d54
   823bc:	00637653 	.word	0x00637653
   823c0:	5f736f70 	.word	0x5f736f70
   823c4:	0076616e 	.word	0x0076616e
   823c8:	75676572 	.word	0x75676572
   823cc:	6f74616c 	.word	0x6f74616c
   823d0:	00007972 	.word	0x00007972
   823d4:	00000043 	.word	0x00000043

000823d8 <_global_impure_ptr>:
   823d8:	20070140                                @.. 

000823dc <_init>:
   823dc:	b5f8      	push	{r3, r4, r5, r6, r7, lr}
   823de:	bf00      	nop
   823e0:	bcf8      	pop	{r3, r4, r5, r6, r7}
   823e2:	bc08      	pop	{r3}
   823e4:	469e      	mov	lr, r3
   823e6:	4770      	bx	lr

000823e8 <__init_array_start>:
   823e8:	000822a9 	.word	0x000822a9

000823ec <__frame_dummy_init_array_entry>:
   823ec:	00080119                                ....

000823f0 <_fini>:
   823f0:	b5f8      	push	{r3, r4, r5, r6, r7, lr}
   823f2:	bf00      	nop
   823f4:	bcf8      	pop	{r3, r4, r5, r6, r7}
   823f6:	bc08      	pop	{r3}
   823f8:	469e      	mov	lr, r3
   823fa:	4770      	bx	lr

000823fc <__fini_array_start>:
   823fc:	000800f5 	.word	0x000800f5

Disassembly of section .relocate:

20070000 <SystemInit>:
20070000:	f44f 6380 	mov.w	r3, #1024	; 0x400
20070004:	4a20      	ldr	r2, [pc, #128]	; (20070088 <SystemInit+0x88>)
20070006:	6013      	str	r3, [r2, #0]
20070008:	f502 7200 	add.w	r2, r2, #512	; 0x200
2007000c:	6013      	str	r3, [r2, #0]
2007000e:	4b1f      	ldr	r3, [pc, #124]	; (2007008c <SystemInit+0x8c>)
20070010:	6a1b      	ldr	r3, [r3, #32]
20070012:	f013 7f80 	tst.w	r3, #16777216	; 0x1000000
20070016:	d107      	bne.n	20070028 <SystemInit+0x28>
20070018:	4a1d      	ldr	r2, [pc, #116]	; (20070090 <SystemInit+0x90>)
2007001a:	4b1c      	ldr	r3, [pc, #112]	; (2007008c <SystemInit+0x8c>)
2007001c:	621a      	str	r2, [r3, #32]
2007001e:	461a      	mov	r2, r3
20070020:	6e93      	ldr	r3, [r2, #104]	; 0x68
20070022:	f013 0f01 	tst.w	r3, #1
20070026:	d0fb      	beq.n	20070020 <SystemInit+0x20>
20070028:	4a1a      	ldr	r2, [pc, #104]	; (20070094 <SystemInit+0x94>)
2007002a:	4b18      	ldr	r3, [pc, #96]	; (2007008c <SystemInit+0x8c>)
2007002c:	621a      	str	r2, [r3, #32]
2007002e:	461a      	mov	r2, r3
20070030:	6e93      	ldr	r3, [r2, #104]	; 0x68
20070032:	f413 3f80 	tst.w	r3, #65536	; 0x10000
20070036:	d0fb      	beq.n	20070030 <SystemInit+0x30>
20070038:	4a14      	ldr	r2, [pc, #80]	; (2007008c <SystemInit+0x8c>)
2007003a:	6b13      	ldr	r3, [r2, #48]	; 0x30
2007003c:	f023 0303 	bic.w	r3, r3, #3
20070040:	f043 0301 	orr.w	r3, r3, #1
20070044:	6313      	str	r3, [r2, #48]	; 0x30
20070046:	6e93      	ldr	r3, [r2, #104]	; 0x68
20070048:	f013 0f08 	tst.w	r3, #8
2007004c:	d0fb      	beq.n	20070046 <SystemInit+0x46>
2007004e:	4a12      	ldr	r2, [pc, #72]	; (20070098 <SystemInit+0x98>)
20070050:	4b0e      	ldr	r3, [pc, #56]	; (2007008c <SystemInit+0x8c>)
20070052:	629a      	str	r2, [r3, #40]	; 0x28
20070054:	461a      	mov	r2, r3
20070056:	6e93      	ldr	r3, [r2, #104]	; 0x68
20070058:	f013 0f02 	tst.w	r3, #2
2007005c:	d0fb      	beq.n	20070056 <SystemInit+0x56>
2007005e:	2211      	movs	r2, #17
20070060:	4b0a      	ldr	r3, [pc, #40]	; (2007008c <SystemInit+0x8c>)
20070062:	631a      	str	r2, [r3, #48]	; 0x30
20070064:	461a      	mov	r2, r3
20070066:	6e93      	ldr	r3, [r2, #104]	; 0x68
20070068:	f013 0f08 	tst.w	r3, #8
2007006c:	d0fb      	beq.n	20070066 <SystemInit+0x66>
2007006e:	2212      	movs	r2, #18
20070070:	4b06      	ldr	r3, [pc, #24]	; (2007008c <SystemInit+0x8c>)
20070072:	631a      	str	r2, [r3, #48]	; 0x30
20070074:	461a      	mov	r2, r3
20070076:	6e93      	ldr	r3, [r2, #104]	; 0x68
20070078:	f013 0f08 	tst.w	r3, #8
2007007c:	d0fb      	beq.n	20070076 <SystemInit+0x76>
2007007e:	4a07      	ldr	r2, [pc, #28]	; (2007009c <SystemInit+0x9c>)
20070080:	4b07      	ldr	r3, [pc, #28]	; (200700a0 <SystemInit+0xa0>)
20070082:	601a      	str	r2, [r3, #0]
20070084:	4770      	bx	lr
20070086:	bf00      	nop
20070088:	400e0a00 	.word	0x400e0a00
2007008c:	400e0600 	.word	0x400e0600
20070090:	00370809 	.word	0x00370809
20070094:	01370809 	.word	0x01370809
20070098:	200d3f01 	.word	0x200d3f01
2007009c:	0501bd00 	.word	0x0501bd00
200700a0:	20070138 	.word	0x20070138

200700a4 <system_init_flash>:
200700a4:	4b1b      	ldr	r3, [pc, #108]	; (20070114 <system_init_flash+0x70>)
200700a6:	4298      	cmp	r0, r3
200700a8:	d806      	bhi.n	200700b8 <system_init_flash+0x14>
200700aa:	2300      	movs	r3, #0
200700ac:	4a1a      	ldr	r2, [pc, #104]	; (20070118 <system_init_flash+0x74>)
200700ae:	6013      	str	r3, [r2, #0]
200700b0:	f502 7200 	add.w	r2, r2, #512	; 0x200
200700b4:	6013      	str	r3, [r2, #0]
200700b6:	4770      	bx	lr
200700b8:	4b18      	ldr	r3, [pc, #96]	; (2007011c <system_init_flash+0x78>)
200700ba:	4298      	cmp	r0, r3
200700bc:	d807      	bhi.n	200700ce <system_init_flash+0x2a>
200700be:	f44f 7380 	mov.w	r3, #256	; 0x100
200700c2:	4a15      	ldr	r2, [pc, #84]	; (20070118 <system_init_flash+0x74>)
200700c4:	6013      	str	r3, [r2, #0]
200700c6:	f502 7200 	add.w	r2, r2, #512	; 0x200
200700ca:	6013      	str	r3, [r2, #0]
200700cc:	4770      	bx	lr
200700ce:	4b14      	ldr	r3, [pc, #80]	; (20070120 <system_init_flash+0x7c>)
200700d0:	4298      	cmp	r0, r3
200700d2:	d807      	bhi.n	200700e4 <system_init_flash+0x40>
200700d4:	f44f 7300 	mov.w	r3, #512	; 0x200
200700d8:	4a0f      	ldr	r2, [pc, #60]	; (20070118 <system_init_flash+0x74>)
200700da:	6013      	str	r3, [r2, #0]
200700dc:	f502 7200 	add.w	r2, r2, #512	; 0x200
200700e0:	6013      	str	r3, [r2, #0]
200700e2:	4770      	bx	lr
200700e4:	4b0f      	ldr	r3, [pc, #60]	; (20070124 <system_init_flash+0x80>)
200700e6:	4298      	cmp	r0, r3
200700e8:	d807      	bhi.n	200700fa <system_init_flash+0x56>
200700ea:	f44f 7340 	mov.w	r3, #768	; 0x300
200700ee:	4a0a      	ldr	r2, [pc, #40]	; (20070118 <system_init_flash+0x74>)
200700f0:	6013      	str	r3, [r2, #0]
200700f2:	f502 7200 	add.w	r2, r2, #512	; 0x200
200700f6:	6013      	str	r3, [r2, #0]
200700f8:	4770      	bx	lr
200700fa:	4b0b      	ldr	r3, [pc, #44]	; (20070128 <system_init_flash+0x84>)
200700fc:	4298      	cmp	r0, r3
200700fe:	bf94      	ite	ls
20070100:	f44f 6380 	movls.w	r3, #1024	; 0x400
20070104:	f44f 63a0 	movhi.w	r3, #1280	; 0x500
20070108:	4a03      	ldr	r2, [pc, #12]	; (20070118 <system_init_flash+0x74>)
2007010a:	6013      	str	r3, [r2, #0]
2007010c:	f502 7200 	add.w	r2, r2, #512	; 0x200
20070110:	6013      	str	r3, [r2, #0]
20070112:	4770      	bx	lr
20070114:	0121eabf 	.word	0x0121eabf
20070118:	400e0a00 	.word	0x400e0a00
2007011c:	02faf07f 	.word	0x02faf07f
20070120:	03d08fff 	.word	0x03d08fff
20070124:	04c4b3ff 	.word	0x04c4b3ff
20070128:	055d4a7f 	.word	0x055d4a7f

2007012c <uxCriticalNesting>:
2007012c:	aaaaaaaa                                ....

20070130 <xFreeBytesRemaining>:
20070130:	0000a000                                ....

20070134 <xNextTaskUnblockTime>:
20070134:	ffffffff                                ....

20070138 <SystemCoreClock>:
20070138:	003d0900 00000000                       ..=.....

20070140 <impure_data>:
20070140:	00000000 2007042c 20070494 200704fc     ....,.. ... ... 
	...
20070174:	000823d4 00000000 00000000 00000000     .#..............
	...
200701e8:	00000001 00000000 abcd330e e66d1234     .........3..4.m.
200701f8:	0005deec 0000000b 00000000 00000000     ................
	...
